   1               		.file	"main.c"
   2               	__SREG__ = 0x3f
   3               	__SP_H__ = 0x3e
   4               	__SP_L__ = 0x3d
   5               	__CCP__  = 0x34
   6               	__tmp_reg__ = 0
   7               	__zero_reg__ = 1
  15               	.Ltext0:
  16               		.data
  17               	.LC0:
  18 0000 4465 6275 		.string	"Debug Started"
  18      6720 5374 
  18      6172 7465 
  18      6400 
  19               	.LC1:
  20 000e 4578 6563 		.string	"Executed RED"
  20      7574 6564 
  20      2052 4544 
  20      00
  21               	.LC2:
  22 001b 4578 6563 		.string	"Executed ICE Blue"
  22      7574 6564 
  22      2049 4345 
  22      2042 6C75 
  22      6500 
  23               	.LC3:
  24 002d 4578 6563 		.string	"Executed Off"
  24      7574 6564 
  24      204F 6666 
  24      00
  25               	.LC4:
  26 003a 4578 6563 		.string	"Executed Green"
  26      7574 6564 
  26      2047 7265 
  26      656E 00
  27               	.LC5:
  28 0049 4578 6563 		.string	"Executed Blue"
  28      7574 6564 
  28      2042 6C75 
  28      6500 
  29               	.LC6:
  30 0057 4578 6563 		.string	"Executed Purple"
  30      7574 6564 
  30      2050 7572 
  30      706C 6500 
  31               	.LC7:
  32 0067 5772 6F6E 		.string	"Wrong CMD"
  32      6720 434D 
  32      4400 
  33               		.text
  34               	.global	main
  36               	main:
  37               	.LFB6:
  38               	.LM1:
  39 0000 DF92      		push r13
  40 0002 EF92      		push r14
  41 0004 FF92      		push r15
  42 0006 0F93      		push r16
  43 0008 1F93      		push r17
  44 000a CF93      		push r28
  45 000c DF93      		push r29
  46               	/* prologue: function */
  47               	/* frame size = 0 */
  48               	.LM2:
  49 000e 0E94 0000 		call WS2812B_Init
  50               	.LM3:
  51 0012 60E8      		ldi r22,lo8(9600)
  52 0014 75E2      		ldi r23,hi8(9600)
  53 0016 80E0      		ldi r24,hlo8(9600)
  54 0018 90E0      		ldi r25,hhi8(9600)
  55 001a 0E94 0000 		call UART_Init
  56               	.LM4:
  57 001e 80E0      		ldi r24,lo8(.LC0)
  58 0020 90E0      		ldi r25,hi8(.LC0)
  59 0022 0E94 0000 		call UART_Tx_Text_NL
  60               	.LM5:
  61 0026 549A      		sbi 42-32,4
  62               	.LM6:
  63 0028 5C98      		cbi 43-32,4
  64               	.LVL0:
  65               	.L20:
  66               	.LM7:
  67 002a 0E94 0000 		call UART_Data_Available
  68 002e 8823      		tst r24
  69 0030 01F4      		brne .+2
  70 0032 00C0      		rjmp .L19
  71               	.LM8:
  72 0034 5C9A      		sbi 43-32,4
  73 0036 C0E0      		ldi r28,lo8(0)
  74 0038 D0E0      		ldi r29,hi8(0)
  75               	.L4:
  76               	.LBB2:
  77               	.LM9:
  78 003a CE01      		movw r24,r28
  79 003c 0E94 0000 		call UART_Buf_Get
  80 0040 6C2F      		mov r22,r28
  81 0042 0E94 0000 		call DataHandler_Buf_Assign
  82 0046 2196      		adiw r28,1
  83               	.LM10:
  84 0048 C630      		cpi r28,6
  85 004a D105      		cpc r29,__zero_reg__
  86 004c 01F4      		brne .L4
  87               	.LBE2:
  88               	.LM11:
  89 004e 0E94 0000 		call UART_Data_Print_Buf
  90               	.LM12:
  91 0052 0E94 0000 		call UART_RX_Packet_Read_Complete
  92               	.LM13:
  93 0056 81E0      		ldi r24,lo8(1)
  94 0058 0E94 0000 		call DataHandler_Buf_Get
  95 005c 8A33      		cpi r24,lo8(58)
  96 005e 01F4      		brne .L5
  97               	.LM14:
  98 0060 80E0      		ldi r24,lo8(0)
  99 0062 0E94 0000 		call DataHandler_Buf_Get
 100 0066 D82E      		mov r13,r24
 101               	.LM15:
 102 0068 82E0      		ldi r24,lo8(2)
 103 006a 0E94 0000 		call DataHandler_Char_To_Dec
 104               	.LM16:
 105 006e 282F      		mov r18,r24
 106               	.LVL1:
 107 0070 30E0      		ldi r19,lo8(0)
 108               	.LVL2:
 109 0072 8901      		movw r16,r18
 110 0074 53E0      		ldi r21,3
 111 0076 000F      	1:	lsl r16
 112 0078 111F      		rol r17
 113 007a 5A95      		dec r21
 114 007c 01F4      		brne 1b
 115 007e 220F      		lsl r18
 116 0080 331F      		rol r19
 117               	.LVL3:
 118 0082 020F      		add r16,r18
 119 0084 131F      		adc r17,r19
 120               	.LM17:
 121 0086 83E0      		ldi r24,lo8(3)
 122 0088 0E94 0000 		call DataHandler_Char_To_Dec
 123               	.LVL4:
 124 008c 080F      		add r16,r24
 125 008e 111D      		adc r17,__zero_reg__
 126               	.LVL5:
 127               	.LM18:
 128 0090 7801      		movw r14,r16
 129 0092 93E0      		ldi r25,3
 130 0094 EE0C      	1:	lsl r14
 131 0096 FF1C      		rol r15
 132 0098 9A95      		dec r25
 133 009a 01F4      		brne 1b
 134 009c 000F      		lsl r16
 135 009e 111F      		rol r17
 136 00a0 E00E      		add r14,r16
 137 00a2 F11E      		adc r15,r17
 138               	.LM19:
 139 00a4 84E0      		ldi r24,lo8(4)
 140 00a6 0E94 0000 		call DataHandler_Char_To_Dec
 141 00aa 9701      		movw r18,r14
 142 00ac 280F      		add r18,r24
 143 00ae 311D      		adc r19,__zero_reg__
 144 00b0 C901      		movw r24,r18
 145               	.LVL6:
 146               	.LM20:
 147 00b2 2F3F      		cpi r18,255
 148 00b4 3105      		cpc r19,__zero_reg__
 149 00b6 01F0      		breq .+2
 150 00b8 00F4      		brsh .L5
 151               	.LVL7:
 152               	.LM21:
 153 00ba 0E94 0000 		call WS2812B_Set_Max_Intensity
 154               	.LVL8:
 155 00be 00C0      		rjmp .L6
 156               	.LVL9:
 157               	.L5:
 158 00c0 DD24      		clr r13
 159               	.L6:
 160               	.LM22:
 161 00c2 0E94 0000 		call DataHandler_Buf_Flush
 162               	.LVL10:
 163               	.LM23:
 164 00c6 5C98      		cbi 43-32,4
 165               	.LM24:
 166 00c8 32E5      		ldi r19,lo8(82)
 167 00ca D316      		cp r13,r19
 168 00cc 01F0      		breq .L7
 169 00ce 82E7      		ldi r24,lo8(114)
 170 00d0 D816      		cp r13,r24
 171 00d2 01F4      		brne .L8
 172               	.L7:
 173               	.LM25:
 174 00d4 80E8      		ldi r24,lo8(-128)
 175 00d6 60E0      		ldi r22,lo8(0)
 176 00d8 40E0      		ldi r20,lo8(0)
 177 00da 0E94 0000 		call WS2812B_send_rgb_Target
 178               	.LM26:
 179 00de 5C9A      		sbi 43-32,4
 180               	.LM27:
 181 00e0 0E94 0000 		call WS2812B_Get_Max_Intensity
 182 00e4 482F      		mov r20,r24
 183 00e6 50E0      		ldi r21,lo8(0)
 184 00e8 60E0      		ldi r22,lo8(0)
 185 00ea 70E0      		ldi r23,hi8(0)
 186 00ec 80E0      		ldi r24,lo8(.LC1)
 187 00ee 90E0      		ldi r25,hi8(.LC1)
 188 00f0 00C0      		rjmp .L23
 189               	.L8:
 190               	.LM28:
 191 00f2 29E4      		ldi r18,lo8(73)
 192 00f4 D216      		cp r13,r18
 193 00f6 01F0      		breq .L10
 194 00f8 39E6      		ldi r19,lo8(105)
 195 00fa D316      		cp r13,r19
 196 00fc 01F4      		brne .L11
 197               	.L10:
 198               	.LM29:
 199 00fe 80E0      		ldi r24,lo8(0)
 200 0100 60E8      		ldi r22,lo8(-128)
 201 0102 40E8      		ldi r20,lo8(-128)
 202 0104 0E94 0000 		call WS2812B_send_rgb_Target
 203               	.LM30:
 204 0108 5C9A      		sbi 43-32,4
 205               	.LM31:
 206 010a 0E94 0000 		call WS2812B_Get_Max_Intensity
 207 010e 482F      		mov r20,r24
 208 0110 50E0      		ldi r21,lo8(0)
 209 0112 60E0      		ldi r22,lo8(0)
 210 0114 70E0      		ldi r23,hi8(0)
 211 0116 80E0      		ldi r24,lo8(.LC2)
 212 0118 90E0      		ldi r25,hi8(.LC2)
 213               	.L23:
 214 011a 0E94 0000 		call UART_Tx_Parameter_NL
 215               	.LM32:
 216 011e 0E94 0000 		call DataHandler_Buf_Flush
 217               	.LM33:
 218 0122 5C98      		cbi 43-32,4
 219 0124 00C0      		rjmp .L9
 220               	.L11:
 221               	.LM34:
 222 0126 8FE4      		ldi r24,lo8(79)
 223 0128 D816      		cp r13,r24
 224 012a 01F0      		breq .L12
 225 012c 2FE6      		ldi r18,lo8(111)
 226 012e D216      		cp r13,r18
 227 0130 01F4      		brne .L13
 228               	.L12:
 229               	.LM35:
 230 0132 5C9A      		sbi 43-32,4
 231               	.LM36:
 232 0134 80E0      		ldi r24,lo8(0)
 233 0136 60E0      		ldi r22,lo8(0)
 234 0138 40E0      		ldi r20,lo8(0)
 235 013a 0E94 0000 		call WS2812B_send_rgb_Target
 236               	.LM37:
 237 013e 0E94 0000 		call WS2812B_Get_Max_Intensity
 238 0142 482F      		mov r20,r24
 239 0144 50E0      		ldi r21,lo8(0)
 240 0146 60E0      		ldi r22,lo8(0)
 241 0148 70E0      		ldi r23,hi8(0)
 242 014a 80E0      		ldi r24,lo8(.LC3)
 243 014c 90E0      		ldi r25,hi8(.LC3)
 244 014e 00C0      		rjmp .L23
 245               	.L13:
 246               	.LM38:
 247 0150 37E4      		ldi r19,lo8(71)
 248 0152 D316      		cp r13,r19
 249 0154 01F0      		breq .L14
 250 0156 87E6      		ldi r24,lo8(103)
 251 0158 D816      		cp r13,r24
 252 015a 01F4      		brne .L15
 253               	.L14:
 254               	.LM39:
 255 015c 5C9A      		sbi 43-32,4
 256               	.LM40:
 257 015e 80E0      		ldi r24,lo8(0)
 258 0160 60E8      		ldi r22,lo8(-128)
 259 0162 40E0      		ldi r20,lo8(0)
 260 0164 0E94 0000 		call WS2812B_send_rgb_Target
 261               	.LM41:
 262 0168 0E94 0000 		call WS2812B_Get_Max_Intensity
 263 016c 482F      		mov r20,r24
 264 016e 50E0      		ldi r21,lo8(0)
 265 0170 60E0      		ldi r22,lo8(0)
 266 0172 70E0      		ldi r23,hi8(0)
 267 0174 80E0      		ldi r24,lo8(.LC4)
 268 0176 90E0      		ldi r25,hi8(.LC4)
 269 0178 00C0      		rjmp .L23
 270               	.L15:
 271               	.LM42:
 272 017a 22E4      		ldi r18,lo8(66)
 273 017c D216      		cp r13,r18
 274 017e 01F0      		breq .L16
 275 0180 32E6      		ldi r19,lo8(98)
 276 0182 D316      		cp r13,r19
 277 0184 01F4      		brne .L17
 278               	.L16:
 279               	.LM43:
 280 0186 5C9A      		sbi 43-32,4
 281               	.LM44:
 282 0188 80E0      		ldi r24,lo8(0)
 283 018a 60E0      		ldi r22,lo8(0)
 284 018c 40E8      		ldi r20,lo8(-128)
 285 018e 0E94 0000 		call WS2812B_send_rgb_Target
 286               	.LM45:
 287 0192 0E94 0000 		call WS2812B_Get_Max_Intensity
 288 0196 482F      		mov r20,r24
 289 0198 50E0      		ldi r21,lo8(0)
 290 019a 60E0      		ldi r22,lo8(0)
 291 019c 70E0      		ldi r23,hi8(0)
 292 019e 80E0      		ldi r24,lo8(.LC5)
 293 01a0 90E0      		ldi r25,hi8(.LC5)
 294 01a2 00C0      		rjmp .L23
 295               	.L17:
 296               	.LM46:
 297 01a4 80E5      		ldi r24,lo8(80)
 298 01a6 D816      		cp r13,r24
 299 01a8 01F0      		breq .L18
 300 01aa 20E7      		ldi r18,lo8(112)
 301 01ac D216      		cp r13,r18
 302 01ae 01F4      		brne .L19
 303               	.L18:
 304               	.LM47:
 305 01b0 5C9A      		sbi 43-32,4
 306               	.LM48:
 307 01b2 84E6      		ldi r24,lo8(100)
 308 01b4 6BE3      		ldi r22,lo8(59)
 309 01b6 4FE9      		ldi r20,lo8(-97)
 310 01b8 0E94 0000 		call WS2812B_send_rgb_Target
 311               	.LM49:
 312 01bc 0E94 0000 		call WS2812B_Get_Max_Intensity
 313 01c0 482F      		mov r20,r24
 314 01c2 50E0      		ldi r21,lo8(0)
 315 01c4 60E0      		ldi r22,lo8(0)
 316 01c6 70E0      		ldi r23,hi8(0)
 317 01c8 80E0      		ldi r24,lo8(.LC6)
 318 01ca 90E0      		ldi r25,hi8(.LC6)
 319 01cc 00C0      		rjmp .L23
 320               	.L19:
 321               	.LM50:
 322 01ce 0E94 0000 		call WS2812B_Get_Max_Intensity
 323 01d2 482F      		mov r20,r24
 324 01d4 50E0      		ldi r21,lo8(0)
 325 01d6 60E0      		ldi r22,lo8(0)
 326 01d8 70E0      		ldi r23,hi8(0)
 327 01da 80E0      		ldi r24,lo8(.LC7)
 328 01dc 90E0      		ldi r25,hi8(.LC7)
 329 01de 0E94 0000 		call UART_Tx_Parameter_NL
 330               	.LM51:
 331 01e2 0E94 0000 		call DataHandler_Buf_Flush
 332               	.L9:
 333               	.LM52:
 334 01e6 0E94 0000 		call WS2812B_Sync
 335 01ea 00C0      		rjmp .L20
 336               	.LFE6:
 362               	.Letext0:
DEFINED SYMBOLS
                            *ABS*:00000000 main.c
C:\Users\WALTON\AppData\Local\Temp/ccvhnjGy.s:2      *ABS*:0000003f __SREG__
C:\Users\WALTON\AppData\Local\Temp/ccvhnjGy.s:3      *ABS*:0000003e __SP_H__
C:\Users\WALTON\AppData\Local\Temp/ccvhnjGy.s:4      *ABS*:0000003d __SP_L__
C:\Users\WALTON\AppData\Local\Temp/ccvhnjGy.s:5      *ABS*:00000034 __CCP__
C:\Users\WALTON\AppData\Local\Temp/ccvhnjGy.s:6      *ABS*:00000000 __tmp_reg__
C:\Users\WALTON\AppData\Local\Temp/ccvhnjGy.s:7      *ABS*:00000001 __zero_reg__
C:\Users\WALTON\AppData\Local\Temp/ccvhnjGy.s:36     .text:00000000 main

UNDEFINED SYMBOLS
WS2812B_Init
UART_Init
UART_Tx_Text_NL
UART_Data_Available
UART_Buf_Get
DataHandler_Buf_Assign
UART_Data_Print_Buf
UART_RX_Packet_Read_Complete
DataHandler_Buf_Get
DataHandler_Char_To_Dec
WS2812B_Set_Max_Intensity
DataHandler_Buf_Flush
WS2812B_send_rgb_Target
WS2812B_Get_Max_Intensity
UART_Tx_Parameter_NL
WS2812B_Sync
__do_copy_data
