   1               		.file	"uart.c"
   2               	__SREG__ = 0x3f
   3               	__SP_H__ = 0x3e
   4               	__SP_L__ = 0x3d
   5               	__CCP__  = 0x34
   6               	__tmp_reg__ = 0
   7               	__zero_reg__ = 1
  15               	.Ltext0:
  16               	.global	UART_Struct_Init
  18               	UART_Struct_Init:
  19               	.LFB6:
  20               	.LM1:
  21               	/* prologue: function */
  22               	/* frame size = 0 */
  23               	.LM2:
  24 0000 1092 0000 		sts UART,__zero_reg__
  25 0004 E0E0      		ldi r30,lo8(UART+1)
  26 0006 F0E0      		ldi r31,hi8(UART+1)
  27               	.L2:
  28               	.LBB180:
  29               	.LM3:
  30 0008 1192      		st Z+,__zero_reg__
  31               	.LM4:
  32 000a 80E0      		ldi r24,hi8(UART+9)
  33 000c E030      		cpi r30,lo8(UART+9)
  34 000e F807      		cpc r31,r24
  35 0010 01F4      		brne .L2
  36               	.LBE180:
  37               	.LM5:
  38 0012 1082      		st Z,__zero_reg__
  39               	.LM6:
  40 0014 1182      		std Z+1,__zero_reg__
  41               	.LM7:
  42 0016 80E4      		ldi r24,lo8(64)
  43 0018 90E0      		ldi r25,hi8(64)
  44 001a 9093 0000 		sts (UART+75)+1,r25
  45 001e 8093 0000 		sts UART+75,r24
  46               	.LM8:
  47 0022 1092 0000 		sts (UART+77)+1,__zero_reg__
  48 0026 1092 0000 		sts UART+77,__zero_reg__
  49 002a 20E0      		ldi r18,lo8(0)
  50               	.LVL0:
  51 002c 00C0      		rjmp .L3
  52               	.LVL1:
  53               	.L4:
  54               	.LBB181:
  55               	.LM9:
  56 002e E050      		subi r30,lo8(-(UART))
  57 0030 F040      		sbci r31,hi8(-(UART))
  58               	.LVL2:
  59 0032 1386      		std Z+11,__zero_reg__
  60               	.LM10:
  61 0034 2F5F      		subi r18,lo8(-(1))
  62               	.LVL3:
  63               	.L3:
  64 0036 8091 0000 		lds r24,UART+75
  65 003a 9091 0000 		lds r25,(UART+75)+1
  66 003e E22F      		mov r30,r18
  67 0040 F0E0      		ldi r31,lo8(0)
  68 0042 E817      		cp r30,r24
  69 0044 F907      		cpc r31,r25
  70 0046 00F0      		brlo .L4
  71               	.LVL4:
  72               	/* epilogue start */
  73               	.LBE181:
  74               	.LM11:
  75 0048 0895      		ret
  76               	.LFE6:
  78               	.global	UART_RX_Packet_Struct_Init
  80               	UART_RX_Packet_Struct_Init:
  81               	.LFB7:
  82               	.LM12:
  83               	/* prologue: function */
  84               	/* frame size = 0 */
  85               	.LM13:
  86 004a 1092 0000 		sts (UART+81)+1,__zero_reg__
  87 004e 1092 0000 		sts UART+81,__zero_reg__
  88               	.LM14:
  89 0052 1092 0000 		sts (UART+83)+1,__zero_reg__
  90 0056 1092 0000 		sts UART+83,__zero_reg__
  91               	.LM15:
  92 005a 1092 0000 		sts UART+85,__zero_reg__
  93               	.LM16:
  94 005e 1092 0000 		sts UART+86,__zero_reg__
  95               	.LM17:
  96 0062 81E0      		ldi r24,lo8(1)
  97 0064 8093 0000 		sts UART+87,r24
  98               	/* epilogue start */
  99               	.LM18:
 100 0068 0895      		ret
 101               	.LFE7:
 103               	.global	UART_Config_GPIO
 105               	UART_Config_GPIO:
 106               	.LFB8:
 107               	.LM19:
 108               	/* prologue: function */
 109               	/* frame size = 0 */
 110               	/* epilogue start */
 111               	.LM20:
 112 006a 0895      		ret
 113               	.LFE8:
 115               	.global	UART_Config_Clock
 117               	UART_Config_Clock:
 118               	.LFB9:
 119               	.LM21:
 120               	/* prologue: function */
 121               	/* frame size = 0 */
 122               	/* epilogue start */
 123               	.LM22:
 124 006c 0895      		ret
 125               	.LFE9:
 127               	.global	UART_Config_BAUD_Rate
 129               	UART_Config_BAUD_Rate:
 130               	.LFB10:
 131               	.LM23:
 132               	.LVL5:
 133               	/* prologue: function */
 134               	/* frame size = 0 */
 135 006e 9B01      		movw r18,r22
 136 0070 AC01      		movw r20,r24
 137               	.LM24:
 138 0072 60E6      		ldi r22,lo8(1500000)
 139 0074 73EE      		ldi r23,hi8(1500000)
 140 0076 86E1      		ldi r24,hlo8(1500000)
 141 0078 90E0      		ldi r25,hhi8(1500000)
 142               	.LVL6:
 143 007a 0E94 0000 		call __udivmodsi4
 144               	.LVL7:
 145 007e 2150      		subi r18,lo8(-(-1))
 146 0080 3040      		sbci r19,hi8(-(-1))
 147 0082 4040      		sbci r20,hlo8(-(-1))
 148 0084 5040      		sbci r21,hhi8(-(-1))
 149               	.LVL8:
 150               	.LM25:
 151 0086 E0EC      		ldi r30,lo8(192)
 152 0088 F0E0      		ldi r31,hi8(192)
 153 008a 8081      		ld r24,Z
 154 008c 8260      		ori r24,lo8(2)
 155 008e 8083      		st Z,r24
 156               	.LM26:
 157 0090 BB27      		clr r27
 158 0092 A52F      		mov r26,r21
 159 0094 942F      		mov r25,r20
 160 0096 832F      		mov r24,r19
 161 0098 8093 C500 		sts 197,r24
 162               	.LM27:
 163 009c 2093 C400 		sts 196,r18
 164               	/* epilogue start */
 165               	.LM28:
 166 00a0 0895      		ret
 167               	.LFE10:
 169               	.global	UART_Config_Tx
 171               	UART_Config_Tx:
 172               	.LFB11:
 173               	.LM29:
 174               	/* prologue: function */
 175               	/* frame size = 0 */
 176               	.LM30:
 177 00a2 E1EC      		ldi r30,lo8(193)
 178 00a4 F0E0      		ldi r31,hi8(193)
 179 00a6 8081      		ld r24,Z
 180 00a8 8860      		ori r24,lo8(8)
 181 00aa 8083      		st Z,r24
 182               	.LM31:
 183 00ac 86E0      		ldi r24,lo8(6)
 184 00ae 8093 C200 		sts 194,r24
 185               	/* epilogue start */
 186               	.LM32:
 187 00b2 0895      		ret
 188               	.LFE11:
 190               	.global	UART_Config_Rx
 192               	UART_Config_Rx:
 193               	.LFB12:
 194               	.LM33:
 195               	/* prologue: function */
 196               	/* frame size = 0 */
 197               	.LM34:
 198 00b4 E1EC      		ldi r30,lo8(193)
 199 00b6 F0E0      		ldi r31,hi8(193)
 200 00b8 8081      		ld r24,Z
 201 00ba 8061      		ori r24,lo8(16)
 202 00bc 8083      		st Z,r24
 203               	.LM35:
 204 00be 86E0      		ldi r24,lo8(6)
 205 00c0 8093 C200 		sts 194,r24
 206               	/* epilogue start */
 207               	.LM36:
 208 00c4 0895      		ret
 209               	.LFE12:
 211               	.global	UART_Config_Rx_Interrupt
 213               	UART_Config_Rx_Interrupt:
 214               	.LFB13:
 215               	.LM37:
 216               	/* prologue: function */
 217               	/* frame size = 0 */
 218               	.LM38:
 219 00c6 E1EC      		ldi r30,lo8(193)
 220 00c8 F0E0      		ldi r31,hi8(193)
 221 00ca 8081      		ld r24,Z
 222 00cc 8068      		ori r24,lo8(-128)
 223 00ce 8083      		st Z,r24
 224               	.LM39:
 225               	/* #APP */
 226               	 ;  155 "uart.c" 1
 227 00d0 7894      		sei
 228               	 ;  0 "" 2
 229               	/* epilogue start */
 230               	.LM40:
 231               	/* #NOAPP */
 232 00d2 0895      		ret
 233               	.LFE13:
 235               	.global	UART_Clear_Interrupt_Flag
 237               	UART_Clear_Interrupt_Flag:
 238               	.LFB14:
 239               	.LM41:
 240               	/* prologue: function */
 241               	/* frame size = 0 */
 242               	/* epilogue start */
 243               	.LM42:
 244 00d4 0895      		ret
 245               	.LFE14:
 247               	.global	UART_Tx_Byte
 249               	UART_Tx_Byte:
 250               	.LFB15:
 251               	.LM43:
 252               	.LVL9:
 253               	/* prologue: function */
 254               	/* frame size = 0 */
 255 00d6 982F      		mov r25,r24
 256               	.LVL10:
 257               	.L24:
 258               	.LM44:
 259 00d8 8091 C000 		lds r24,192
 260 00dc 85FF      		sbrs r24,5
 261 00de 00C0      		rjmp .L24
 262               	.LM45:
 263 00e0 9093 C600 		sts 198,r25
 264               	/* epilogue start */
 265               	.LM46:
 266 00e4 0895      		ret
 267               	.LFE15:
 269               	.global	UART_Rx_Byte
 271               	UART_Rx_Byte:
 272               	.LFB16:
 273               	.LM47:
 274 00e6 DF93      		push r29
 275 00e8 CF93      		push r28
 276 00ea 0F92      		push __tmp_reg__
 277 00ec CDB7      		in r28,__SP_L__
 278 00ee DEB7      		in r29,__SP_H__
 279               	/* prologue: function */
 280               	/* frame size = 1 */
 281               	.LM48:
 282 00f0 1982      		std Y+1,__zero_reg__
 283               	.LVL11:
 284               	.LM49:
 285 00f2 8091 C000 		lds r24,192
 286 00f6 84FF      		sbrs r24,4
 287 00f8 00C0      		rjmp .L28
 288               	.LM50:
 289 00fa 8091 C600 		lds r24,198
 290               	.LVL12:
 291 00fe 8983      		std Y+1,r24
 292               	.LM51:
 293 0100 81E0      		ldi r24,lo8(1)
 294               	.LVL13:
 295 0102 00C0      		rjmp .L32
 296               	.L28:
 297               	.LM52:
 298 0104 8091 C000 		lds r24,192
 299 0108 83FF      		sbrs r24,3
 300 010a 00C0      		rjmp .L30
 301               	.LM53:
 302 010c 8091 C600 		lds r24,198
 303               	.LVL14:
 304 0110 8983      		std Y+1,r24
 305               	.LM54:
 306 0112 82E0      		ldi r24,lo8(2)
 307               	.LVL15:
 308               	.L32:
 309 0114 8093 0000 		sts UART,r24
 310 0118 00C0      		rjmp .L29
 311               	.L30:
 312               	.LM55:
 313 011a 8091 C600 		lds r24,198
 314               	.LVL16:
 315 011e 8983      		std Y+1,r24
 316               	.LM56:
 317 0120 1092 0000 		sts UART,__zero_reg__
 318               	.LVL17:
 319               	.L29:
 320               	.LM57:
 321 0124 8981      		ldd r24,Y+1
 322               	/* epilogue start */
 323               	.LM58:
 324 0126 0F90      		pop __tmp_reg__
 325 0128 CF91      		pop r28
 326 012a DF91      		pop r29
 327 012c 0895      		ret
 328               	.LFE16:
 330               	.global	UART_Timer_Struct_Init
 332               	UART_Timer_Struct_Init:
 333               	.LFB18:
 334               	.LM59:
 335               	/* prologue: function */
 336               	/* frame size = 0 */
 337               	.LM60:
 338 012e 1092 0000 		sts UART+79,__zero_reg__
 339               	.LM61:
 340 0132 1092 0000 		sts UART+80,__zero_reg__
 341               	/* epilogue start */
 342               	.LM62:
 343 0136 0895      		ret
 344               	.LFE18:
 346               	.global	UART_Timer_Init
 348               	UART_Timer_Init:
 349               	.LFB19:
 350               	.LM63:
 351               	/* prologue: function */
 352               	/* frame size = 0 */
 353               	.LM64:
 354 0138 84E0      		ldi r24,lo8(4)
 355 013a 8093 0000 		sts UART+80,r24
 356               	.LM65:
 357 013e 8BEF      		ldi r24,lo8(-5)
 358 0140 8093 0000 		sts UART+80,r24
 359               	.LM66:
 360 0144 1092 B600 		sts 182,__zero_reg__
 361               	.LM67:
 362 0148 1092 B000 		sts 176,__zero_reg__
 363               	.LM68:
 364 014c 1092 B100 		sts 177,__zero_reg__
 365               	.LM69:
 366 0150 E0E7      		ldi r30,lo8(112)
 367 0152 F0E0      		ldi r31,hi8(112)
 368 0154 1082      		st Z,__zero_reg__
 369               	.LM70:
 370 0156 1092 B200 		sts 178,__zero_reg__
 371               	.LM71:
 372 015a 8FEF      		ldi r24,lo8(-1)
 373 015c 87BB      		out 55-32,r24
 374               	.LM72:
 375 015e 81E0      		ldi r24,lo8(1)
 376 0160 8083      		st Z,r24
 377               	.LM73:
 378               	/* #APP */
 379               	 ;  221 "uart.c" 1
 380 0162 7894      		sei
 381               	 ;  0 "" 2
 382               	/* epilogue start */
 383               	.LM74:
 384               	/* #NOAPP */
 385 0164 0895      		ret
 386               	.LFE19:
 388               	.global	UART_Timer_Enable
 390               	UART_Timer_Enable:
 391               	.LFB20:
 392               	.LM75:
 393               	/* prologue: function */
 394               	/* frame size = 0 */
 395               	.LM76:
 396 0166 87E0      		ldi r24,lo8(7)
 397 0168 8093 B100 		sts 177,r24
 398               	/* epilogue start */
 399               	.LM77:
 400 016c 0895      		ret
 401               	.LFE20:
 403               	.global	UART_Timer_Disable
 405               	UART_Timer_Disable:
 406               	.LFB21:
 407               	.LM78:
 408               	/* prologue: function */
 409               	/* frame size = 0 */
 410               	.LM79:
 411 016e 1092 B100 		sts 177,__zero_reg__
 412               	/* epilogue start */
 413               	.LM80:
 414 0172 0895      		ret
 415               	.LFE21:
 417               	.global	UART_Timer_Get_Status
 419               	UART_Timer_Get_Status:
 420               	.LFB22:
 421               	.LM81:
 422               	/* prologue: function */
 423               	/* frame size = 0 */
 424               	.LM82:
 425 0174 8091 0000 		lds r24,UART+79
 426               	/* epilogue start */
 427               	.LM83:
 428 0178 0895      		ret
 429               	.LFE22:
 431               	.global	UART_Timer_Get_Val
 433               	UART_Timer_Get_Val:
 434               	.LFB23:
 435               	.LM84:
 436               	/* prologue: function */
 437               	/* frame size = 0 */
 438               	.LM85:
 439 017a 8091 B200 		lds r24,178
 440               	.LM86:
 441 017e 90E0      		ldi r25,lo8(0)
 442               	/* epilogue start */
 443 0180 0895      		ret
 444               	.LFE23:
 446               	.global	UART_Timer_Value_Reset
 448               	UART_Timer_Value_Reset:
 449               	.LFB24:
 450               	.LM87:
 451               	/* prologue: function */
 452               	/* frame size = 0 */
 453               	.LM88:
 454 0182 8091 0000 		lds r24,UART+80
 455 0186 8093 B200 		sts 178,r24
 456               	/* epilogue start */
 457               	.LM89:
 458 018a 0895      		ret
 459               	.LFE24:
 461               	.global	UART_Timer_Clear_Interrupt_Flag
 463               	UART_Timer_Clear_Interrupt_Flag:
 464               	.LFB25:
 465               	.LM90:
 466               	/* prologue: function */
 467               	/* frame size = 0 */
 468               	/* epilogue start */
 469               	.LM91:
 470 018c 0895      		ret
 471               	.LFE25:
 473               	.global	UART_Tx_Buf
 475               	UART_Tx_Buf:
 476               	.LFB27:
 477               	.LM92:
 478               	.LVL18:
 479               	/* prologue: function */
 480               	/* frame size = 0 */
 481 018e AC01      		movw r20,r24
 482               	.LM93:
 483 0190 20E0      		ldi r18,lo8(0)
 484 0192 30E0      		ldi r19,hi8(0)
 485               	.LVL19:
 486               	.LBB182:
 487               	.LM94:
 488 0194 70E0      		ldi r23,lo8(0)
 489               	.LVL20:
 490 0196 00C0      		rjmp .L50
 491               	.LVL21:
 492               	.L52:
 493               	.LM95:
 494 0198 FA01      		movw r30,r20
 495 019a E20F      		add r30,r18
 496 019c F31F      		adc r31,r19
 497 019e E081      		ld r30,Z
 498               	.L51:
 499               	.LBB183:
 500               	.LBB184:
 501               	.LM96:
 502 01a0 8091 C000 		lds r24,192
 503 01a4 85FF      		sbrs r24,5
 504 01a6 00C0      		rjmp .L51
 505               	.LM97:
 506 01a8 E093 C600 		sts 198,r30
 507               	.LBE184:
 508               	.LBE183:
 509               	.LM98:
 510 01ac 2F5F      		subi r18,lo8(-(1))
 511 01ae 3F4F      		sbci r19,hi8(-(1))
 512               	.LVL22:
 513               	.L50:
 514 01b0 2617      		cp r18,r22
 515 01b2 3707      		cpc r19,r23
 516 01b4 00F0      		brlo .L52
 517               	/* epilogue start */
 518               	.LBE182:
 519               	.LM99:
 520 01b6 0895      		ret
 521               	.LFE27:
 523               	.global	UART_Tx_NL
 525               	UART_Tx_NL:
 526               	.LFB28:
 527               	.LM100:
 528               	/* prologue: function */
 529               	/* frame size = 0 */
 530               	.L56:
 531               	.LBB185:
 532               	.LBB186:
 533               	.LM101:
 534 01b8 8091 C000 		lds r24,192
 535 01bc 85FF      		sbrs r24,5
 536 01be 00C0      		rjmp .L56
 537               	.LM102:
 538 01c0 8DE0      		ldi r24,lo8(13)
 539 01c2 8093 C600 		sts 198,r24
 540               	.L57:
 541               	.LBE186:
 542               	.LBE185:
 543               	.LBB187:
 544               	.LBB188:
 545               	.LM103:
 546 01c6 8091 C000 		lds r24,192
 547 01ca 85FF      		sbrs r24,5
 548 01cc 00C0      		rjmp .L57
 549               	.LM104:
 550 01ce 8AE0      		ldi r24,lo8(10)
 551 01d0 8093 C600 		sts 198,r24
 552               	/* epilogue start */
 553               	.LBE188:
 554               	.LBE187:
 555               	.LM105:
 556 01d4 0895      		ret
 557               	.LFE28:
 559               	.global	UART_Tx_SP
 561               	UART_Tx_SP:
 562               	.LFB29:
 563               	.LM106:
 564               	/* prologue: function */
 565               	/* frame size = 0 */
 566               	.L62:
 567               	.LBB189:
 568               	.LBB190:
 569               	.LM107:
 570 01d6 8091 C000 		lds r24,192
 571 01da 85FF      		sbrs r24,5
 572 01dc 00C0      		rjmp .L62
 573               	.LM108:
 574 01de 80E2      		ldi r24,lo8(32)
 575 01e0 8093 C600 		sts 198,r24
 576               	/* epilogue start */
 577               	.LBE190:
 578               	.LBE189:
 579               	.LM109:
 580 01e4 0895      		ret
 581               	.LFE29:
 583               	.global	UART_Tx_CM
 585               	UART_Tx_CM:
 586               	.LFB30:
 587               	.LM110:
 588               	/* prologue: function */
 589               	/* frame size = 0 */
 590               	.L66:
 591               	.LBB191:
 592               	.LBB192:
 593               	.LM111:
 594 01e6 8091 C000 		lds r24,192
 595 01ea 85FF      		sbrs r24,5
 596 01ec 00C0      		rjmp .L66
 597               	.LM112:
 598 01ee 8CE2      		ldi r24,lo8(44)
 599 01f0 8093 C600 		sts 198,r24
 600               	/* epilogue start */
 601               	.LBE192:
 602               	.LBE191:
 603               	.LM113:
 604 01f4 0895      		ret
 605               	.LFE30:
 607               	.global	UART_Tx_Text
 609               	UART_Tx_Text:
 610               	.LFB31:
 611               	.LM114:
 612               	.LVL23:
 613               	/* prologue: function */
 614               	/* frame size = 0 */
 615 01f6 AC01      		movw r20,r24
 616               	.LM115:
 617 01f8 20E0      		ldi r18,lo8(0)
 618               	.LVL24:
 619 01fa 00C0      		rjmp .L70
 620               	.LVL25:
 621               	.L73:
 622               	.LBB193:
 623               	.LBB194:
 624               	.LM116:
 625 01fc 8091 C000 		lds r24,192
 626 0200 85FF      		sbrs r24,5
 627 0202 00C0      		rjmp .L73
 628               	.LM117:
 629 0204 E093 C600 		sts 198,r30
 630               	.LBE194:
 631               	.LBE193:
 632               	.LM118:
 633 0208 2F5F      		subi r18,lo8(-(1))
 634               	.LVL26:
 635               	.L70:
 636               	.LM119:
 637 020a FA01      		movw r30,r20
 638 020c E20F      		add r30,r18
 639 020e F11D      		adc r31,__zero_reg__
 640 0210 E081      		ld r30,Z
 641 0212 EE23      		tst r30
 642 0214 01F4      		brne .L73
 643               	/* epilogue start */
 644               	.LM120:
 645 0216 0895      		ret
 646               	.LFE31:
 648               	.global	UART_Tx_Text_NL
 650               	UART_Tx_Text_NL:
 651               	.LFB32:
 652               	.LM121:
 653               	.LVL27:
 654               	/* prologue: function */
 655               	/* frame size = 0 */
 656               	.LM122:
 657 0218 0E94 0000 		call UART_Tx_Text
 658               	.LVL28:
 659               	.LM123:
 660 021c 0E94 0000 		call UART_Tx_NL
 661               	/* epilogue start */
 662               	.LM124:
 663 0220 0895      		ret
 664               	.LFE32:
 666               	.global	UART_Tx_Text_SP
 668               	UART_Tx_Text_SP:
 669               	.LFB33:
 670               	.LM125:
 671               	.LVL29:
 672               	/* prologue: function */
 673               	/* frame size = 0 */
 674               	.LM126:
 675 0222 0E94 0000 		call UART_Tx_Text
 676               	.LVL30:
 677               	.L78:
 678               	.LBB195:
 679               	.LBB196:
 680               	.LBB197:
 681               	.LBB198:
 682               	.LM127:
 683 0226 8091 C000 		lds r24,192
 684 022a 85FF      		sbrs r24,5
 685 022c 00C0      		rjmp .L78
 686               	.LM128:
 687 022e 80E2      		ldi r24,lo8(32)
 688 0230 8093 C600 		sts 198,r24
 689               	/* epilogue start */
 690               	.LBE198:
 691               	.LBE197:
 692               	.LBE196:
 693               	.LBE195:
 694               	.LM129:
 695 0234 0895      		ret
 696               	.LFE33:
 698               	.global	UART_Tx_Text_CM
 700               	UART_Tx_Text_CM:
 701               	.LFB34:
 702               	.LM130:
 703               	.LVL31:
 704               	/* prologue: function */
 705               	/* frame size = 0 */
 706               	.LM131:
 707 0236 0E94 0000 		call UART_Tx_Text
 708               	.LVL32:
 709               	.L82:
 710               	.LBB199:
 711               	.LBB200:
 712               	.LBB201:
 713               	.LBB202:
 714               	.LM132:
 715 023a 8091 C000 		lds r24,192
 716 023e 85FF      		sbrs r24,5
 717 0240 00C0      		rjmp .L82
 718               	.LM133:
 719 0242 8CE2      		ldi r24,lo8(44)
 720 0244 8093 C600 		sts 198,r24
 721               	/* epilogue start */
 722               	.LBE202:
 723               	.LBE201:
 724               	.LBE200:
 725               	.LBE199:
 726               	.LM134:
 727 0248 0895      		ret
 728               	.LFE34:
 730               	.global	UART_Determine_Digit_Numbers
 732               	UART_Determine_Digit_Numbers:
 733               	.LFB35:
 734               	.LM135:
 735               	.LVL33:
 736 024a BF92      		push r11
 737 024c CF92      		push r12
 738 024e DF92      		push r13
 739 0250 EF92      		push r14
 740 0252 FF92      		push r15
 741 0254 0F93      		push r16
 742 0256 1F93      		push r17
 743               	/* prologue: function */
 744               	/* frame size = 0 */
 745 0258 6B01      		movw r12,r22
 746 025a 7C01      		movw r14,r24
 747               	.LM136:
 748 025c 6115      		cp r22,__zero_reg__
 749 025e 7105      		cpc r23,__zero_reg__
 750 0260 8105      		cpc r24,__zero_reg__
 751 0262 9105      		cpc r25,__zero_reg__
 752 0264 01F4      		brne .L86
 753               	.LM137:
 754 0266 1092 0000 		sts UART+1,__zero_reg__
 755               	.LM138:
 756 026a 81E0      		ldi r24,lo8(1)
 757 026c 8093 0000 		sts UART+9,r24
 758 0270 00C0      		rjmp .L89
 759               	.L86:
 760 0272 BB24      		clr r11
 761               	.LVL34:
 762               	.L88:
 763               	.LM139:
 764 0274 0B2D      		mov r16,r11
 765 0276 10E0      		ldi r17,lo8(0)
 766               	.LVL35:
 767 0278 0050      		subi r16,lo8(-(UART))
 768 027a 1040      		sbci r17,hi8(-(UART))
 769               	.LVL36:
 770 027c C701      		movw r24,r14
 771 027e B601      		movw r22,r12
 772               	.LVL37:
 773 0280 2AE0      		ldi r18,lo8(10)
 774 0282 30E0      		ldi r19,hi8(10)
 775 0284 40E0      		ldi r20,hlo8(10)
 776 0286 50E0      		ldi r21,hhi8(10)
 777 0288 0E94 0000 		call __udivmodsi4
 778 028c F801      		movw r30,r16
 779 028e 6183      		std Z+1,r22
 780               	.LM140:
 781 0290 C701      		movw r24,r14
 782 0292 B601      		movw r22,r12
 783 0294 2AE0      		ldi r18,lo8(10)
 784 0296 30E0      		ldi r19,hi8(10)
 785 0298 40E0      		ldi r20,hlo8(10)
 786 029a 50E0      		ldi r21,hhi8(10)
 787 029c 0E94 0000 		call __udivmodsi4
 788 02a0 C901      		movw r24,r18
 789 02a2 DA01      		movw r26,r20
 790 02a4 6C01      		movw r12,r24
 791 02a6 7D01      		movw r14,r26
 792               	.LM141:
 793 02a8 B394      		inc r11
 794               	.LVL38:
 795               	.LM142:
 796 02aa C114      		cp r12,__zero_reg__
 797 02ac D104      		cpc r13,__zero_reg__
 798 02ae E104      		cpc r14,__zero_reg__
 799 02b0 F104      		cpc r15,__zero_reg__
 800 02b2 01F4      		brne .L88
 801               	.LM143:
 802 02b4 B092 0000 		sts UART+9,r11
 803               	.LVL39:
 804               	.L89:
 805               	/* epilogue start */
 806               	.LM144:
 807 02b8 1F91      		pop r17
 808               	.LVL40:
 809 02ba 0F91      		pop r16
 810 02bc FF90      		pop r15
 811 02be EF90      		pop r14
 812 02c0 DF90      		pop r13
 813 02c2 CF90      		pop r12
 814               	.LVL41:
 815 02c4 BF90      		pop r11
 816               	.LVL42:
 817 02c6 0895      		ret
 818               	.LFE35:
 820               	.global	UART_Tx_Number_Digits
 822               	UART_Tx_Number_Digits:
 823               	.LFB36:
 824               	.LM145:
 825               	/* prologue: function */
 826               	/* frame size = 0 */
 827               	.LBB203:
 828               	.LM146:
 829 02c8 E091 0000 		lds r30,UART+9
 830               	.LVL43:
 831 02cc 00C0      		rjmp .L92
 832               	.LVL44:
 833               	.L94:
 834               	.LBB204:
 835               	.LM147:
 836 02ce 2E2F      		mov r18,r30
 837 02d0 2150      		subi r18,lo8(-(-1))
 838               	.LM148:
 839 02d2 E22F      		mov r30,r18
 840               	.LVL45:
 841 02d4 F0E0      		ldi r31,lo8(0)
 842 02d6 E050      		subi r30,lo8(-(UART))
 843 02d8 F040      		sbci r31,hi8(-(UART))
 844 02da 9181      		ldd r25,Z+1
 845               	.LVL46:
 846               	.L93:
 847               	.LBB205:
 848               	.LBB206:
 849               	.LM149:
 850 02dc 8091 C000 		lds r24,192
 851 02e0 85FF      		sbrs r24,5
 852 02e2 00C0      		rjmp .L93
 853               	.LBE206:
 854               	.LBE205:
 855               	.LM150:
 856 02e4 905D      		subi r25,lo8(-(48))
 857               	.LBB208:
 858               	.LBB207:
 859               	.LM151:
 860 02e6 9093 C600 		sts 198,r25
 861 02ea E22F      		mov r30,r18
 862               	.LVL47:
 863               	.L92:
 864               	.LBE207:
 865               	.LBE208:
 866               	.LBE204:
 867               	.LM152:
 868 02ec EE23      		tst r30
 869 02ee 01F4      		brne .L94
 870               	/* epilogue start */
 871               	.LBE203:
 872               	.LM153:
 873 02f0 0895      		ret
 874               	.LFE36:
 876               	.global	UART_Tx_Number
 878               	UART_Tx_Number:
 879               	.LFB37:
 880               	.LM154:
 881               	.LVL48:
 882               	/* prologue: function */
 883               	/* frame size = 0 */
 884 02f2 9B01      		movw r18,r22
 885 02f4 AC01      		movw r20,r24
 886               	.LM155:
 887 02f6 97FF      		sbrs r25,7
 888 02f8 00C0      		rjmp .L98
 889               	.L101:
 890               	.LBB209:
 891               	.LBB210:
 892               	.LM156:
 893 02fa 8091 C000 		lds r24,192
 894 02fe 85FF      		sbrs r24,5
 895 0300 00C0      		rjmp .L101
 896               	.LM157:
 897 0302 8DE2      		ldi r24,lo8(45)
 898 0304 8093 C600 		sts 198,r24
 899               	.LBE210:
 900               	.LBE209:
 901               	.LM158:
 902 0308 5095      		com r21
 903 030a 4095      		com r20
 904 030c 3095      		com r19
 905 030e 2195      		neg r18
 906 0310 3F4F      		sbci r19,lo8(-1)
 907 0312 4F4F      		sbci r20,lo8(-1)
 908 0314 5F4F      		sbci r21,lo8(-1)
 909               	.LVL49:
 910               	.L98:
 911               	.LM159:
 912 0316 CA01      		movw r24,r20
 913 0318 B901      		movw r22,r18
 914 031a 0E94 0000 		call UART_Determine_Digit_Numbers
 915               	.LVL50:
 916               	.LM160:
 917 031e 0E94 0000 		call UART_Tx_Number_Digits
 918               	/* epilogue start */
 919               	.LM161:
 920 0322 0895      		ret
 921               	.LFE37:
 923               	.global	UART_Tx_Number_Hex
 925               	UART_Tx_Number_Hex:
 926               	.LFB38:
 927               	.LM162:
 928               	.LVL51:
 929 0324 1F93      		push r17
 930 0326 CF93      		push r28
 931 0328 DF93      		push r29
 932               	/* prologue: function */
 933               	/* frame size = 0 */
 934 032a AB01      		movw r20,r22
 935 032c BC01      		movw r22,r24
 936               	.LM163:
 937 032e 4F3F      		cpi r20,lo8(255)
 938 0330 5105      		cpc r21,__zero_reg__
 939 0332 6105      		cpc r22,__zero_reg__
 940 0334 7105      		cpc r23,__zero_reg__
 941 0336 01F0      		breq .+2
 942 0338 00F4      		brsh .L104
 943               	.LVL52:
 944 033a E8E0      		ldi r30,lo8(8)
 945 033c F0E0      		ldi r31,hi8(8)
 946               	.LVL53:
 947 033e C2E0      		ldi r28,lo8(2)
 948 0340 D0E0      		ldi r29,hi8(2)
 949               	.LVL54:
 950 0342 00C0      		rjmp .L114
 951               	.LVL55:
 952               	.L104:
 953               	.LM164:
 954 0344 4030      		cpi r20,lo8(65536)
 955 0346 80E0      		ldi r24,hi8(65536)
 956 0348 5807      		cpc r21,r24
 957 034a 81E0      		ldi r24,hlo8(65536)
 958 034c 6807      		cpc r22,r24
 959 034e 80E0      		ldi r24,hhi8(65536)
 960 0350 7807      		cpc r23,r24
 961 0352 00F0      		brlo .L106
 962 0354 E0E2      		ldi r30,lo8(32)
 963 0356 F0E0      		ldi r31,hi8(32)
 964               	.LVL56:
 965 0358 C8E0      		ldi r28,lo8(8)
 966 035a D0E0      		ldi r29,hi8(8)
 967               	.LVL57:
 968 035c 00C0      		rjmp .L114
 969               	.LVL58:
 970               	.L106:
 971 035e E0E1      		ldi r30,lo8(16)
 972 0360 F0E0      		ldi r31,hi8(16)
 973               	.LVL59:
 974 0362 C4E0      		ldi r28,lo8(4)
 975 0364 D0E0      		ldi r29,hi8(4)
 976               	.LVL60:
 977               	.L114:
 978               	.LBB211:
 979               	.LBB212:
 980               	.LM165:
 981 0366 8091 C000 		lds r24,192
 982 036a 85FF      		sbrs r24,5
 983 036c 00C0      		rjmp .L114
 984               	.LM166:
 985 036e 80E3      		ldi r24,lo8(48)
 986 0370 8093 C600 		sts 198,r24
 987               	.L107:
 988               	.LBE212:
 989               	.LBE211:
 990               	.LBB213:
 991               	.LBB214:
 992               	.LM167:
 993 0374 8091 C000 		lds r24,192
 994 0378 85FF      		sbrs r24,5
 995 037a 00C0      		rjmp .L107
 996               	.LM168:
 997 037c 88E7      		ldi r24,lo8(120)
 998 037e 8093 C600 		sts 198,r24
 999 0382 10E0      		ldi r17,lo8(0)
 1000               	.LVL61:
 1001 0384 00C0      		rjmp .L108
 1002               	.LVL62:
 1003               	.L111:
 1004               	.LBE214:
 1005               	.LBE213:
 1006               	.LBB215:
 1007               	.LM169:
 1008 0386 3497      		sbiw r30,4
 1009               	.LM170:
 1010 0388 DB01      		movw r26,r22
 1011 038a CA01      		movw r24,r20
 1012               	.LVL63:
 1013 038c 0E2E      		mov r0,r30
 1014 038e 00C0      		rjmp 2f
 1015 0390 B695      	1:	lsr r27
 1016 0392 A795      		ror r26
 1017 0394 9795      		ror r25
 1018 0396 8795      		ror r24
 1019 0398 0A94      	2:	dec r0
 1020 039a 02F4      		brpl 1b
 1021 039c 90E0      		ldi r25,lo8(0)
 1022               	.LVL64:
 1023 039e 8F70      		andi r24,lo8(15)
 1024 03a0 9070      		andi r25,hi8(15)
 1025               	.LVL65:
 1026               	.LM171:
 1027 03a2 8A30      		cpi r24,10
 1028 03a4 9105      		cpc r25,__zero_reg__
 1029 03a6 00F0      		brlo .L109
 1030               	.LM172:
 1031 03a8 9C01      		movw r18,r24
 1032 03aa 295C      		subi r18,lo8(-(55))
 1033 03ac 3F4F      		sbci r19,hi8(-(55))
 1034               	.LVL66:
 1035 03ae 00C0      		rjmp .L113
 1036               	.LVL67:
 1037               	.L109:
 1038               	.LM173:
 1039 03b0 9C01      		movw r18,r24
 1040 03b2 205D      		subi r18,lo8(-(48))
 1041 03b4 3F4F      		sbci r19,hi8(-(48))
 1042               	.LVL68:
 1043               	.L113:
 1044               	.LBB216:
 1045               	.LBB217:
 1046               	.LM174:
 1047 03b6 8091 C000 		lds r24,192
 1048 03ba 85FF      		sbrs r24,5
 1049 03bc 00C0      		rjmp .L113
 1050               	.LM175:
 1051 03be 2093 C600 		sts 198,r18
 1052               	.LBE217:
 1053               	.LBE216:
 1054               	.LM176:
 1055 03c2 1F5F      		subi r17,lo8(-(1))
 1056               	.L108:
 1057 03c4 812F      		mov r24,r17
 1058 03c6 90E0      		ldi r25,lo8(0)
 1059               	.LVL69:
 1060 03c8 8C17      		cp r24,r28
 1061 03ca 9D07      		cpc r25,r29
 1062 03cc 00F0      		brlo .L111
 1063               	.LVL70:
 1064               	/* epilogue start */
 1065               	.LBE215:
 1066               	.LM177:
 1067 03ce DF91      		pop r29
 1068 03d0 CF91      		pop r28
 1069               	.LVL71:
 1070 03d2 1F91      		pop r17
 1071 03d4 0895      		ret
 1072               	.LFE38:
 1074               	.global	UART_Tx_Number_Bin
 1076               	UART_Tx_Number_Bin:
 1077               	.LFB39:
 1078               	.LM178:
 1079               	.LVL72:
 1080 03d6 CF92      		push r12
 1081 03d8 DF92      		push r13
 1082 03da EF92      		push r14
 1083 03dc FF92      		push r15
 1084 03de 0F93      		push r16
 1085 03e0 1F93      		push r17
 1086 03e2 CF93      		push r28
 1087 03e4 DF93      		push r29
 1088               	/* prologue: function */
 1089               	/* frame size = 0 */
 1090 03e6 AB01      		movw r20,r22
 1091 03e8 BC01      		movw r22,r24
 1092               	.LM179:
 1093 03ea 4F3F      		cpi r20,lo8(255)
 1094 03ec 5105      		cpc r21,__zero_reg__
 1095 03ee 6105      		cpc r22,__zero_reg__
 1096 03f0 7105      		cpc r23,__zero_reg__
 1097 03f2 01F0      		breq .+2
 1098 03f4 00F4      		brsh .L119
 1099               	.LVL73:
 1100 03f6 97E0      		ldi r25,lo8(7)
 1101               	.LVL74:
 1102 03f8 00C0      		rjmp .L130
 1103               	.LVL75:
 1104               	.L119:
 1105               	.LM180:
 1106 03fa 4030      		cpi r20,lo8(65536)
 1107 03fc 80E0      		ldi r24,hi8(65536)
 1108 03fe 5807      		cpc r21,r24
 1109 0400 81E0      		ldi r24,hlo8(65536)
 1110 0402 6807      		cpc r22,r24
 1111 0404 80E0      		ldi r24,hhi8(65536)
 1112 0406 7807      		cpc r23,r24
 1113 0408 00F0      		brlo .L121
 1114 040a 9FE1      		ldi r25,lo8(31)
 1115               	.LVL76:
 1116 040c 00C0      		rjmp .L130
 1117               	.LVL77:
 1118               	.L121:
 1119 040e 9FE0      		ldi r25,lo8(15)
 1120               	.LVL78:
 1121               	.L130:
 1122               	.LBB218:
 1123               	.LBB219:
 1124               	.LM181:
 1125 0410 8091 C000 		lds r24,192
 1126 0414 85FF      		sbrs r24,5
 1127 0416 00C0      		rjmp .L130
 1128               	.LM182:
 1129 0418 80E3      		ldi r24,lo8(48)
 1130 041a 8093 C600 		sts 198,r24
 1131               	.L122:
 1132               	.LBE219:
 1133               	.LBE218:
 1134               	.LBB220:
 1135               	.LBB221:
 1136               	.LM183:
 1137 041e 8091 C000 		lds r24,192
 1138 0422 85FF      		sbrs r24,5
 1139 0424 00C0      		rjmp .L122
 1140               	.LM184:
 1141 0426 82E6      		ldi r24,lo8(98)
 1142 0428 8093 C600 		sts 198,r24
 1143 042c 20E0      		ldi r18,lo8(0)
 1144 042e 30E0      		ldi r19,hi8(0)
 1145               	.LM185:
 1146 0430 E92F      		mov r30,r25
 1147 0432 F0E0      		ldi r31,lo8(0)
 1148               	.LBE221:
 1149               	.LBE220:
 1150               	.LBB222:
 1151               	.LBB223:
 1152               	.LBB224:
 1153               	.LM186:
 1154 0434 00E3      		ldi r16,lo8(48)
 1155               	.LBE224:
 1156               	.LBE223:
 1157               	.LBB226:
 1158               	.LBB227:
 1159 0436 11E3      		ldi r17,lo8(49)
 1160               	.LBE227:
 1161               	.LBE226:
 1162               	.LM187:
 1163 0438 EF01      		movw r28,r30
 1164 043a 2196      		adiw r28,1
 1165               	.L126:
 1166               	.LM188:
 1167 043c CF01      		movw r24,r30
 1168 043e 821B      		sub r24,r18
 1169 0440 930B      		sbc r25,r19
 1170 0442 6A01      		movw r12,r20
 1171 0444 7B01      		movw r14,r22
 1172 0446 00C0      		rjmp 2f
 1173 0448 F694      	1:	lsr r15
 1174 044a E794      		ror r14
 1175 044c D794      		ror r13
 1176 044e C794      		ror r12
 1177 0450 8A95      	2:	dec r24
 1178 0452 02F4      		brpl 1b
 1179 0454 D701      		movw r26,r14
 1180 0456 C601      		movw r24,r12
 1181 0458 8170      		andi r24,lo8(1)
 1182 045a 9070      		andi r25,hi8(1)
 1183 045c 892B      		or r24,r25
 1184 045e 01F0      		breq .L129
 1185               	.L128:
 1186               	.LBB229:
 1187               	.LBB228:
 1188               	.LM189:
 1189 0460 8091 C000 		lds r24,192
 1190 0464 85FF      		sbrs r24,5
 1191 0466 00C0      		rjmp .L128
 1192               	.LM190:
 1193 0468 1093 C600 		sts 198,r17
 1194 046c 00C0      		rjmp .L125
 1195               	.L129:
 1196               	.LBE228:
 1197               	.LBE229:
 1198               	.LBB230:
 1199               	.LBB225:
 1200               	.LM191:
 1201 046e 8091 C000 		lds r24,192
 1202 0472 85FF      		sbrs r24,5
 1203 0474 00C0      		rjmp .L129
 1204               	.LM192:
 1205 0476 0093 C600 		sts 198,r16
 1206               	.L125:
 1207 047a 2F5F      		subi r18,lo8(-(1))
 1208 047c 3F4F      		sbci r19,hi8(-(1))
 1209               	.LBE225:
 1210               	.LBE230:
 1211               	.LM193:
 1212 047e 2C17      		cp r18,r28
 1213 0480 3D07      		cpc r19,r29
 1214 0482 01F4      		brne .L126
 1215               	/* epilogue start */
 1216               	.LBE222:
 1217               	.LM194:
 1218 0484 DF91      		pop r29
 1219 0486 CF91      		pop r28
 1220 0488 1F91      		pop r17
 1221 048a 0F91      		pop r16
 1222 048c FF90      		pop r15
 1223 048e EF90      		pop r14
 1224 0490 DF90      		pop r13
 1225 0492 CF90      		pop r12
 1226 0494 0895      		ret
 1227               	.LFE39:
 1229               	.global	UART_Tx_Number_NL
 1231               	UART_Tx_Number_NL:
 1232               	.LFB40:
 1233               	.LM195:
 1234               	.LVL79:
 1235               	/* prologue: function */
 1236               	/* frame size = 0 */
 1237               	.LM196:
 1238 0496 0E94 0000 		call UART_Tx_Number
 1239               	.LVL80:
 1240               	.LM197:
 1241 049a 0E94 0000 		call UART_Tx_NL
 1242               	/* epilogue start */
 1243               	.LM198:
 1244 049e 0895      		ret
 1245               	.LFE40:
 1247               	.global	UART_Tx_Number_SP
 1249               	UART_Tx_Number_SP:
 1250               	.LFB41:
 1251               	.LM199:
 1252               	.LVL81:
 1253               	/* prologue: function */
 1254               	/* frame size = 0 */
 1255               	.LM200:
 1256 04a0 0E94 0000 		call UART_Tx_Number
 1257               	.LVL82:
 1258               	.L139:
 1259               	.LBB231:
 1260               	.LBB232:
 1261               	.LBB233:
 1262               	.LBB234:
 1263               	.LM201:
 1264 04a4 8091 C000 		lds r24,192
 1265 04a8 85FF      		sbrs r24,5
 1266 04aa 00C0      		rjmp .L139
 1267               	.LM202:
 1268 04ac 80E2      		ldi r24,lo8(32)
 1269 04ae 8093 C600 		sts 198,r24
 1270               	/* epilogue start */
 1271               	.LBE234:
 1272               	.LBE233:
 1273               	.LBE232:
 1274               	.LBE231:
 1275               	.LM203:
 1276 04b2 0895      		ret
 1277               	.LFE41:
 1279               	.global	UART_Tx_Number_CM
 1281               	UART_Tx_Number_CM:
 1282               	.LFB42:
 1283               	.LM204:
 1284               	.LVL83:
 1285               	/* prologue: function */
 1286               	/* frame size = 0 */
 1287               	.LM205:
 1288 04b4 0E94 0000 		call UART_Tx_Number
 1289               	.LVL84:
 1290               	.L143:
 1291               	.LBB235:
 1292               	.LBB236:
 1293               	.LBB237:
 1294               	.LBB238:
 1295               	.LM206:
 1296 04b8 8091 C000 		lds r24,192
 1297 04bc 85FF      		sbrs r24,5
 1298 04be 00C0      		rjmp .L143
 1299               	.LM207:
 1300 04c0 8CE2      		ldi r24,lo8(44)
 1301 04c2 8093 C600 		sts 198,r24
 1302               	/* epilogue start */
 1303               	.LBE238:
 1304               	.LBE237:
 1305               	.LBE236:
 1306               	.LBE235:
 1307               	.LM208:
 1308 04c6 0895      		ret
 1309               	.LFE42:
 1311               	.global	UART_Tx_Number_Hex_NL
 1313               	UART_Tx_Number_Hex_NL:
 1314               	.LFB43:
 1315               	.LM209:
 1316               	.LVL85:
 1317               	/* prologue: function */
 1318               	/* frame size = 0 */
 1319               	.LM210:
 1320 04c8 0E94 0000 		call UART_Tx_Number_Hex
 1321               	.LVL86:
 1322               	.LM211:
 1323 04cc 0E94 0000 		call UART_Tx_NL
 1324               	/* epilogue start */
 1325               	.LM212:
 1326 04d0 0895      		ret
 1327               	.LFE43:
 1329               	.global	UART_Tx_Number_Hex_SP
 1331               	UART_Tx_Number_Hex_SP:
 1332               	.LFB44:
 1333               	.LM213:
 1334               	.LVL87:
 1335               	/* prologue: function */
 1336               	/* frame size = 0 */
 1337               	.LM214:
 1338 04d2 0E94 0000 		call UART_Tx_Number_Hex
 1339               	.LVL88:
 1340               	.L149:
 1341               	.LBB239:
 1342               	.LBB240:
 1343               	.LBB241:
 1344               	.LBB242:
 1345               	.LM215:
 1346 04d6 8091 C000 		lds r24,192
 1347 04da 85FF      		sbrs r24,5
 1348 04dc 00C0      		rjmp .L149
 1349               	.LM216:
 1350 04de 80E2      		ldi r24,lo8(32)
 1351 04e0 8093 C600 		sts 198,r24
 1352               	/* epilogue start */
 1353               	.LBE242:
 1354               	.LBE241:
 1355               	.LBE240:
 1356               	.LBE239:
 1357               	.LM217:
 1358 04e4 0895      		ret
 1359               	.LFE44:
 1361               	.global	UART_Tx_Number_Hex_CM
 1363               	UART_Tx_Number_Hex_CM:
 1364               	.LFB45:
 1365               	.LM218:
 1366               	.LVL89:
 1367               	/* prologue: function */
 1368               	/* frame size = 0 */
 1369               	.LM219:
 1370 04e6 0E94 0000 		call UART_Tx_Number_Hex
 1371               	.LVL90:
 1372               	.L153:
 1373               	.LBB243:
 1374               	.LBB244:
 1375               	.LBB245:
 1376               	.LBB246:
 1377               	.LM220:
 1378 04ea 8091 C000 		lds r24,192
 1379 04ee 85FF      		sbrs r24,5
 1380 04f0 00C0      		rjmp .L153
 1381               	.LM221:
 1382 04f2 8CE2      		ldi r24,lo8(44)
 1383 04f4 8093 C600 		sts 198,r24
 1384               	/* epilogue start */
 1385               	.LBE246:
 1386               	.LBE245:
 1387               	.LBE244:
 1388               	.LBE243:
 1389               	.LM222:
 1390 04f8 0895      		ret
 1391               	.LFE45:
 1393               	.global	UART_Tx_Number_Bin_NL
 1395               	UART_Tx_Number_Bin_NL:
 1396               	.LFB46:
 1397               	.LM223:
 1398               	.LVL91:
 1399               	/* prologue: function */
 1400               	/* frame size = 0 */
 1401               	.LM224:
 1402 04fa 0E94 0000 		call UART_Tx_Number_Bin
 1403               	.LVL92:
 1404               	.LM225:
 1405 04fe 0E94 0000 		call UART_Tx_NL
 1406               	/* epilogue start */
 1407               	.LM226:
 1408 0502 0895      		ret
 1409               	.LFE46:
 1411               	.global	UART_Tx_Number_Bin_SP
 1413               	UART_Tx_Number_Bin_SP:
 1414               	.LFB47:
 1415               	.LM227:
 1416               	.LVL93:
 1417               	/* prologue: function */
 1418               	/* frame size = 0 */
 1419               	.LM228:
 1420 0504 0E94 0000 		call UART_Tx_Number_Bin
 1421               	.LVL94:
 1422               	.L159:
 1423               	.LBB247:
 1424               	.LBB248:
 1425               	.LBB249:
 1426               	.LBB250:
 1427               	.LM229:
 1428 0508 8091 C000 		lds r24,192
 1429 050c 85FF      		sbrs r24,5
 1430 050e 00C0      		rjmp .L159
 1431               	.LM230:
 1432 0510 80E2      		ldi r24,lo8(32)
 1433 0512 8093 C600 		sts 198,r24
 1434               	/* epilogue start */
 1435               	.LBE250:
 1436               	.LBE249:
 1437               	.LBE248:
 1438               	.LBE247:
 1439               	.LM231:
 1440 0516 0895      		ret
 1441               	.LFE47:
 1443               	.global	UART_Tx_Number_Bin_CM
 1445               	UART_Tx_Number_Bin_CM:
 1446               	.LFB48:
 1447               	.LM232:
 1448               	.LVL95:
 1449               	/* prologue: function */
 1450               	/* frame size = 0 */
 1451               	.LM233:
 1452 0518 0E94 0000 		call UART_Tx_Number_Bin
 1453               	.LVL96:
 1454               	.L163:
 1455               	.LBB251:
 1456               	.LBB252:
 1457               	.LBB253:
 1458               	.LBB254:
 1459               	.LM234:
 1460 051c 8091 C000 		lds r24,192
 1461 0520 85FF      		sbrs r24,5
 1462 0522 00C0      		rjmp .L163
 1463               	.LM235:
 1464 0524 8CE2      		ldi r24,lo8(44)
 1465 0526 8093 C600 		sts 198,r24
 1466               	/* epilogue start */
 1467               	.LBE254:
 1468               	.LBE253:
 1469               	.LBE252:
 1470               	.LBE251:
 1471               	.LM236:
 1472 052a 0895      		ret
 1473               	.LFE48:
 1475               	.global	UART_Tx_Parameter_NL
 1477               	UART_Tx_Parameter_NL:
 1478               	.LFB49:
 1479               	.LM237:
 1480               	.LVL97:
 1481 052c EF92      		push r14
 1482 052e FF92      		push r15
 1483 0530 0F93      		push r16
 1484 0532 1F93      		push r17
 1485               	/* prologue: function */
 1486               	/* frame size = 0 */
 1487 0534 7A01      		movw r14,r20
 1488 0536 8B01      		movw r16,r22
 1489               	.LM238:
 1490 0538 0E94 0000 		call UART_Tx_Text
 1491               	.LVL98:
 1492               	.L167:
 1493               	.LBB255:
 1494               	.LBB256:
 1495               	.LBB257:
 1496               	.LBB258:
 1497               	.LM239:
 1498 053c 8091 C000 		lds r24,192
 1499 0540 85FF      		sbrs r24,5
 1500 0542 00C0      		rjmp .L167
 1501               	.LM240:
 1502 0544 80E2      		ldi r24,lo8(32)
 1503 0546 8093 C600 		sts 198,r24
 1504               	.LBE258:
 1505               	.LBE257:
 1506               	.LBE256:
 1507               	.LBE255:
 1508               	.LM241:
 1509 054a C801      		movw r24,r16
 1510 054c B701      		movw r22,r14
 1511 054e 0E94 0000 		call UART_Tx_Number_NL
 1512               	/* epilogue start */
 1513               	.LM242:
 1514 0552 1F91      		pop r17
 1515 0554 0F91      		pop r16
 1516 0556 FF90      		pop r15
 1517 0558 EF90      		pop r14
 1518               	.LVL99:
 1519 055a 0895      		ret
 1520               	.LFE49:
 1522               	.global	UART_Tx_Parameter_SP
 1524               	UART_Tx_Parameter_SP:
 1525               	.LFB50:
 1526               	.LM243:
 1527               	.LVL100:
 1528 055c EF92      		push r14
 1529 055e FF92      		push r15
 1530 0560 0F93      		push r16
 1531 0562 1F93      		push r17
 1532               	/* prologue: function */
 1533               	/* frame size = 0 */
 1534 0564 7A01      		movw r14,r20
 1535 0566 8B01      		movw r16,r22
 1536               	.LM244:
 1537 0568 0E94 0000 		call UART_Tx_Text
 1538               	.LVL101:
 1539               	.L171:
 1540               	.LBB259:
 1541               	.LBB260:
 1542               	.LBB261:
 1543               	.LBB262:
 1544               	.LM245:
 1545 056c 8091 C000 		lds r24,192
 1546 0570 85FF      		sbrs r24,5
 1547 0572 00C0      		rjmp .L171
 1548               	.LM246:
 1549 0574 80E2      		ldi r24,lo8(32)
 1550 0576 8093 C600 		sts 198,r24
 1551               	.LBE262:
 1552               	.LBE261:
 1553               	.LBE260:
 1554               	.LBE259:
 1555               	.LM247:
 1556 057a C801      		movw r24,r16
 1557 057c B701      		movw r22,r14
 1558 057e 0E94 0000 		call UART_Tx_Number_SP
 1559               	/* epilogue start */
 1560               	.LM248:
 1561 0582 1F91      		pop r17
 1562 0584 0F91      		pop r16
 1563 0586 FF90      		pop r15
 1564 0588 EF90      		pop r14
 1565               	.LVL102:
 1566 058a 0895      		ret
 1567               	.LFE50:
 1569               	.global	UART_Tx_Parameter_CM
 1571               	UART_Tx_Parameter_CM:
 1572               	.LFB51:
 1573               	.LM249:
 1574               	.LVL103:
 1575 058c EF92      		push r14
 1576 058e FF92      		push r15
 1577 0590 0F93      		push r16
 1578 0592 1F93      		push r17
 1579               	/* prologue: function */
 1580               	/* frame size = 0 */
 1581 0594 7A01      		movw r14,r20
 1582 0596 8B01      		movw r16,r22
 1583               	.LM250:
 1584 0598 0E94 0000 		call UART_Tx_Text
 1585               	.LVL104:
 1586               	.L175:
 1587               	.LBB263:
 1588               	.LBB264:
 1589               	.LBB265:
 1590               	.LBB266:
 1591               	.LM251:
 1592 059c 8091 C000 		lds r24,192
 1593 05a0 85FF      		sbrs r24,5
 1594 05a2 00C0      		rjmp .L175
 1595               	.LM252:
 1596 05a4 80E2      		ldi r24,lo8(32)
 1597 05a6 8093 C600 		sts 198,r24
 1598               	.LBE266:
 1599               	.LBE265:
 1600               	.LBE264:
 1601               	.LBE263:
 1602               	.LM253:
 1603 05aa C801      		movw r24,r16
 1604 05ac B701      		movw r22,r14
 1605 05ae 0E94 0000 		call UART_Tx_Number_CM
 1606               	/* epilogue start */
 1607               	.LM254:
 1608 05b2 1F91      		pop r17
 1609 05b4 0F91      		pop r16
 1610 05b6 FF90      		pop r15
 1611 05b8 EF90      		pop r14
 1612               	.LVL105:
 1613 05ba 0895      		ret
 1614               	.LFE51:
 1616               	.global	UART_Tx_Parameter_Hex_NL
 1618               	UART_Tx_Parameter_Hex_NL:
 1619               	.LFB52:
 1620               	.LM255:
 1621               	.LVL106:
 1622 05bc EF92      		push r14
 1623 05be FF92      		push r15
 1624 05c0 0F93      		push r16
 1625 05c2 1F93      		push r17
 1626               	/* prologue: function */
 1627               	/* frame size = 0 */
 1628 05c4 7A01      		movw r14,r20
 1629 05c6 8B01      		movw r16,r22
 1630               	.LM256:
 1631 05c8 0E94 0000 		call UART_Tx_Text
 1632               	.LVL107:
 1633               	.L179:
 1634               	.LBB267:
 1635               	.LBB268:
 1636               	.LBB269:
 1637               	.LBB270:
 1638               	.LM257:
 1639 05cc 8091 C000 		lds r24,192
 1640 05d0 85FF      		sbrs r24,5
 1641 05d2 00C0      		rjmp .L179
 1642               	.LM258:
 1643 05d4 80E2      		ldi r24,lo8(32)
 1644 05d6 8093 C600 		sts 198,r24
 1645               	.LBE270:
 1646               	.LBE269:
 1647               	.LBE268:
 1648               	.LBE267:
 1649               	.LM259:
 1650 05da C801      		movw r24,r16
 1651 05dc B701      		movw r22,r14
 1652 05de 0E94 0000 		call UART_Tx_Number_Hex_NL
 1653               	/* epilogue start */
 1654               	.LM260:
 1655 05e2 1F91      		pop r17
 1656 05e4 0F91      		pop r16
 1657 05e6 FF90      		pop r15
 1658 05e8 EF90      		pop r14
 1659               	.LVL108:
 1660 05ea 0895      		ret
 1661               	.LFE52:
 1663               	.global	UART_Tx_Parameter_Hex_SP
 1665               	UART_Tx_Parameter_Hex_SP:
 1666               	.LFB53:
 1667               	.LM261:
 1668               	.LVL109:
 1669 05ec EF92      		push r14
 1670 05ee FF92      		push r15
 1671 05f0 0F93      		push r16
 1672 05f2 1F93      		push r17
 1673               	/* prologue: function */
 1674               	/* frame size = 0 */
 1675 05f4 7A01      		movw r14,r20
 1676 05f6 8B01      		movw r16,r22
 1677               	.LM262:
 1678 05f8 0E94 0000 		call UART_Tx_Text
 1679               	.LVL110:
 1680               	.L183:
 1681               	.LBB271:
 1682               	.LBB272:
 1683               	.LBB273:
 1684               	.LBB274:
 1685               	.LM263:
 1686 05fc 8091 C000 		lds r24,192
 1687 0600 85FF      		sbrs r24,5
 1688 0602 00C0      		rjmp .L183
 1689               	.LM264:
 1690 0604 80E2      		ldi r24,lo8(32)
 1691 0606 8093 C600 		sts 198,r24
 1692               	.LBE274:
 1693               	.LBE273:
 1694               	.LBE272:
 1695               	.LBE271:
 1696               	.LM265:
 1697 060a C801      		movw r24,r16
 1698 060c B701      		movw r22,r14
 1699 060e 0E94 0000 		call UART_Tx_Number_Hex_SP
 1700               	/* epilogue start */
 1701               	.LM266:
 1702 0612 1F91      		pop r17
 1703 0614 0F91      		pop r16
 1704 0616 FF90      		pop r15
 1705 0618 EF90      		pop r14
 1706               	.LVL111:
 1707 061a 0895      		ret
 1708               	.LFE53:
 1710               	.global	UART_Tx_Parameter_Hex_CM
 1712               	UART_Tx_Parameter_Hex_CM:
 1713               	.LFB54:
 1714               	.LM267:
 1715               	.LVL112:
 1716 061c EF92      		push r14
 1717 061e FF92      		push r15
 1718 0620 0F93      		push r16
 1719 0622 1F93      		push r17
 1720               	/* prologue: function */
 1721               	/* frame size = 0 */
 1722 0624 7A01      		movw r14,r20
 1723 0626 8B01      		movw r16,r22
 1724               	.LM268:
 1725 0628 0E94 0000 		call UART_Tx_Text
 1726               	.LVL113:
 1727               	.L187:
 1728               	.LBB275:
 1729               	.LBB276:
 1730               	.LBB277:
 1731               	.LBB278:
 1732               	.LM269:
 1733 062c 8091 C000 		lds r24,192
 1734 0630 85FF      		sbrs r24,5
 1735 0632 00C0      		rjmp .L187
 1736               	.LM270:
 1737 0634 80E2      		ldi r24,lo8(32)
 1738 0636 8093 C600 		sts 198,r24
 1739               	.LBE278:
 1740               	.LBE277:
 1741               	.LBE276:
 1742               	.LBE275:
 1743               	.LM271:
 1744 063a C801      		movw r24,r16
 1745 063c B701      		movw r22,r14
 1746 063e 0E94 0000 		call UART_Tx_Number_Hex_CM
 1747               	/* epilogue start */
 1748               	.LM272:
 1749 0642 1F91      		pop r17
 1750 0644 0F91      		pop r16
 1751 0646 FF90      		pop r15
 1752 0648 EF90      		pop r14
 1753               	.LVL114:
 1754 064a 0895      		ret
 1755               	.LFE54:
 1757               	.global	UART_Tx_Parameter_Bin_NL
 1759               	UART_Tx_Parameter_Bin_NL:
 1760               	.LFB55:
 1761               	.LM273:
 1762               	.LVL115:
 1763 064c EF92      		push r14
 1764 064e FF92      		push r15
 1765 0650 0F93      		push r16
 1766 0652 1F93      		push r17
 1767               	/* prologue: function */
 1768               	/* frame size = 0 */
 1769 0654 7A01      		movw r14,r20
 1770 0656 8B01      		movw r16,r22
 1771               	.LM274:
 1772 0658 0E94 0000 		call UART_Tx_Text
 1773               	.LVL116:
 1774               	.L191:
 1775               	.LBB279:
 1776               	.LBB280:
 1777               	.LBB281:
 1778               	.LBB282:
 1779               	.LM275:
 1780 065c 8091 C000 		lds r24,192
 1781 0660 85FF      		sbrs r24,5
 1782 0662 00C0      		rjmp .L191
 1783               	.LM276:
 1784 0664 80E2      		ldi r24,lo8(32)
 1785 0666 8093 C600 		sts 198,r24
 1786               	.LBE282:
 1787               	.LBE281:
 1788               	.LBE280:
 1789               	.LBE279:
 1790               	.LM277:
 1791 066a C801      		movw r24,r16
 1792 066c B701      		movw r22,r14
 1793 066e 0E94 0000 		call UART_Tx_Number_Bin_NL
 1794               	/* epilogue start */
 1795               	.LM278:
 1796 0672 1F91      		pop r17
 1797 0674 0F91      		pop r16
 1798 0676 FF90      		pop r15
 1799 0678 EF90      		pop r14
 1800               	.LVL117:
 1801 067a 0895      		ret
 1802               	.LFE55:
 1804               	.global	UART_Tx_Parameter_Bin_SP
 1806               	UART_Tx_Parameter_Bin_SP:
 1807               	.LFB56:
 1808               	.LM279:
 1809               	.LVL118:
 1810 067c EF92      		push r14
 1811 067e FF92      		push r15
 1812 0680 0F93      		push r16
 1813 0682 1F93      		push r17
 1814               	/* prologue: function */
 1815               	/* frame size = 0 */
 1816 0684 7A01      		movw r14,r20
 1817 0686 8B01      		movw r16,r22
 1818               	.LM280:
 1819 0688 0E94 0000 		call UART_Tx_Text
 1820               	.LVL119:
 1821               	.L195:
 1822               	.LBB283:
 1823               	.LBB284:
 1824               	.LBB285:
 1825               	.LBB286:
 1826               	.LM281:
 1827 068c 8091 C000 		lds r24,192
 1828 0690 85FF      		sbrs r24,5
 1829 0692 00C0      		rjmp .L195
 1830               	.LM282:
 1831 0694 80E2      		ldi r24,lo8(32)
 1832 0696 8093 C600 		sts 198,r24
 1833               	.LBE286:
 1834               	.LBE285:
 1835               	.LBE284:
 1836               	.LBE283:
 1837               	.LM283:
 1838 069a C801      		movw r24,r16
 1839 069c B701      		movw r22,r14
 1840 069e 0E94 0000 		call UART_Tx_Number_Bin_SP
 1841               	/* epilogue start */
 1842               	.LM284:
 1843 06a2 1F91      		pop r17
 1844 06a4 0F91      		pop r16
 1845 06a6 FF90      		pop r15
 1846 06a8 EF90      		pop r14
 1847               	.LVL120:
 1848 06aa 0895      		ret
 1849               	.LFE56:
 1851               	.global	UART_Tx_Parameter_Bin_CM
 1853               	UART_Tx_Parameter_Bin_CM:
 1854               	.LFB57:
 1855               	.LM285:
 1856               	.LVL121:
 1857 06ac EF92      		push r14
 1858 06ae FF92      		push r15
 1859 06b0 0F93      		push r16
 1860 06b2 1F93      		push r17
 1861               	/* prologue: function */
 1862               	/* frame size = 0 */
 1863 06b4 7A01      		movw r14,r20
 1864 06b6 8B01      		movw r16,r22
 1865               	.LM286:
 1866 06b8 0E94 0000 		call UART_Tx_Text
 1867               	.LVL122:
 1868               	.L199:
 1869               	.LBB287:
 1870               	.LBB288:
 1871               	.LBB289:
 1872               	.LBB290:
 1873               	.LM287:
 1874 06bc 8091 C000 		lds r24,192
 1875 06c0 85FF      		sbrs r24,5
 1876 06c2 00C0      		rjmp .L199
 1877               	.LM288:
 1878 06c4 80E2      		ldi r24,lo8(32)
 1879 06c6 8093 C600 		sts 198,r24
 1880               	.LBE290:
 1881               	.LBE289:
 1882               	.LBE288:
 1883               	.LBE287:
 1884               	.LM289:
 1885 06ca C801      		movw r24,r16
 1886 06cc B701      		movw r22,r14
 1887 06ce 0E94 0000 		call UART_Tx_Number_Bin_CM
 1888               	/* epilogue start */
 1889               	.LM290:
 1890 06d2 1F91      		pop r17
 1891 06d4 0F91      		pop r16
 1892 06d6 FF90      		pop r15
 1893 06d8 EF90      		pop r14
 1894               	.LVL123:
 1895 06da 0895      		ret
 1896               	.LFE57:
 1898               	.global	UART_Buf_Flush
 1900               	UART_Buf_Flush:
 1901               	.LFB58:
 1902               	.LM291:
 1903               	/* prologue: function */
 1904               	/* frame size = 0 */
 1905               	.LM292:
 1906 06dc 80E0      		ldi r24,lo8(0)
 1907 06de 90E0      		ldi r25,hi8(0)
 1908               	.L203:
 1909               	.LBB291:
 1910               	.LM293:
 1911 06e0 FC01      		movw r30,r24
 1912 06e2 E050      		subi r30,lo8(-(UART))
 1913 06e4 F040      		sbci r31,hi8(-(UART))
 1914 06e6 1386      		std Z+11,__zero_reg__
 1915 06e8 0196      		adiw r24,1
 1916               	.LM294:
 1917 06ea 8034      		cpi r24,64
 1918 06ec 9105      		cpc r25,__zero_reg__
 1919 06ee 01F4      		brne .L203
 1920               	.LBE291:
 1921               	.LM295:
 1922 06f0 1092 0000 		sts (UART+77)+1,__zero_reg__
 1923 06f4 1092 0000 		sts UART+77,__zero_reg__
 1924               	/* epilogue start */
 1925               	.LM296:
 1926 06f8 0895      		ret
 1927               	.LFE58:
 1929               	.global	UART_Buf_Get
 1931               	UART_Buf_Get:
 1932               	.LFB59:
 1933               	.LM297:
 1934               	.LVL124:
 1935               	/* prologue: function */
 1936               	/* frame size = 0 */
 1937               	.LM298:
 1938 06fa FC01      		movw r30,r24
 1939 06fc E050      		subi r30,lo8(-(UART))
 1940 06fe F040      		sbci r31,hi8(-(UART))
 1941 0700 8385      		ldd r24,Z+11
 1942               	.LVL125:
 1943               	/* epilogue start */
 1944               	.LM299:
 1945 0702 0895      		ret
 1946               	.LFE59:
 1948               	.global	UART_Buf_Get_Index
 1950               	UART_Buf_Get_Index:
 1951               	.LFB60:
 1952               	.LM300:
 1953               	/* prologue: function */
 1954               	/* frame size = 0 */
 1955               	.LM301:
 1956 0704 8091 0000 		lds r24,UART+77
 1957 0708 9091 0000 		lds r25,(UART+77)+1
 1958               	/* epilogue start */
 1959               	.LM302:
 1960 070c 0895      		ret
 1961               	.LFE60:
 1963               	.global	UART_Data_Available
 1965               	UART_Data_Available:
 1966               	.LFB61:
 1967               	.LM303:
 1968               	/* prologue: function */
 1969               	/* frame size = 0 */
 1970               	.LM304:
 1971 070e 8091 0000 		lds r24,UART+86
 1972               	/* epilogue start */
 1973               	.LM305:
 1974 0712 0895      		ret
 1975               	.LFE61:
 1977               	.global	UART_Data_Len_Get
 1979               	UART_Data_Len_Get:
 1980               	.LFB62:
 1981               	.LM306:
 1982               	/* prologue: function */
 1983               	/* frame size = 0 */
 1984               	.LBB292:
 1985               	.LBB293:
 1986               	.LM307:
 1987 0714 8091 0000 		lds r24,UART+77
 1988 0718 9091 0000 		lds r25,(UART+77)+1
 1989               	/* epilogue start */
 1990               	.LBE293:
 1991               	.LBE292:
 1992               	.LM308:
 1993 071c 0895      		ret
 1994               	.LFE62:
 1996               	.global	UART_Data_Calculated_CRC_Get
 1998               	UART_Data_Calculated_CRC_Get:
 1999               	.LFB63:
 2000               	.LM309:
 2001               	/* prologue: function */
 2002               	/* frame size = 0 */
 2003               	.LM310:
 2004 071e 2091 0000 		lds r18,UART+81
 2005 0722 3091 0000 		lds r19,(UART+81)+1
 2006               	.LM311:
 2007 0726 C901      		movw r24,r18
 2008               	/* epilogue start */
 2009 0728 0895      		ret
 2010               	.LFE63:
 2012               	.global	UART_Data_Received_CRC_Get
 2014               	UART_Data_Received_CRC_Get:
 2015               	.LFB64:
 2016               	.LM312:
 2017               	/* prologue: function */
 2018               	/* frame size = 0 */
 2019               	.LM313:
 2020 072a 2091 0000 		lds r18,UART+83
 2021 072e 3091 0000 		lds r19,(UART+83)+1
 2022               	.LM314:
 2023 0732 C901      		movw r24,r18
 2024               	/* epilogue start */
 2025 0734 0895      		ret
 2026               	.LFE64:
 2028               	.global	UART_Data_CRC_Status_Get
 2030               	UART_Data_CRC_Status_Get:
 2031               	.LFB65:
 2032               	.LM315:
 2033               	/* prologue: function */
 2034               	/* frame size = 0 */
 2035               	.LM316:
 2036 0736 8091 0000 		lds r24,UART+85
 2037               	/* epilogue start */
 2038               	.LM317:
 2039 073a 0895      		ret
 2040               	.LFE65:
 2042               	.global	UART_Data_Read_Complete_Status
 2044               	UART_Data_Read_Complete_Status:
 2045               	.LFB66:
 2046               	.LM318:
 2047               	/* prologue: function */
 2048               	/* frame size = 0 */
 2049               	.LM319:
 2050 073c 8091 0000 		lds r24,UART+87
 2051               	/* epilogue start */
 2052               	.LM320:
 2053 0740 0895      		ret
 2054               	.LFE66:
 2056               	.global	UART_Data_Clear_Available_Flag
 2058               	UART_Data_Clear_Available_Flag:
 2059               	.LFB67:
 2060               	.LM321:
 2061               	/* prologue: function */
 2062               	/* frame size = 0 */
 2063               	.LM322:
 2064 0742 1092 0000 		sts UART+86,__zero_reg__
 2065               	/* epilogue start */
 2066               	.LM323:
 2067 0746 0895      		ret
 2068               	.LFE67:
 2070               	.global	UART_Data_Clear_Read_Complete_Flag
 2072               	UART_Data_Clear_Read_Complete_Flag:
 2073               	.LFB68:
 2074               	.LM324:
 2075               	/* prologue: function */
 2076               	/* frame size = 0 */
 2077               	.LM325:
 2078 0748 80E0      		ldi r24,lo8(0)
 2079 074a 90E0      		ldi r25,hi8(0)
 2080               	.L225:
 2081               	.LBB294:
 2082               	.LBB295:
 2083               	.LBB296:
 2084               	.LM326:
 2085 074c FC01      		movw r30,r24
 2086 074e E050      		subi r30,lo8(-(UART))
 2087 0750 F040      		sbci r31,hi8(-(UART))
 2088 0752 1386      		std Z+11,__zero_reg__
 2089 0754 0196      		adiw r24,1
 2090               	.LM327:
 2091 0756 8034      		cpi r24,64
 2092 0758 9105      		cpc r25,__zero_reg__
 2093 075a 01F4      		brne .L225
 2094               	.LBE296:
 2095               	.LM328:
 2096 075c 1092 0000 		sts (UART+77)+1,__zero_reg__
 2097 0760 1092 0000 		sts UART+77,__zero_reg__
 2098               	.LBE295:
 2099               	.LBE294:
 2100               	.LM329:
 2101 0764 81E0      		ldi r24,lo8(1)
 2102 0766 8093 0000 		sts UART+87,r24
 2103               	/* epilogue start */
 2104               	.LM330:
 2105 076a 0895      		ret
 2106               	.LFE68:
 2108               	.global	UART_Data_Copy_Buf
 2110               	UART_Data_Copy_Buf:
 2111               	.LFB69:
 2112               	.LM331:
 2113               	.LVL126:
 2114               	/* prologue: function */
 2115               	/* frame size = 0 */
 2116 076c AC01      		movw r20,r24
 2117               	.LM332:
 2118 076e 20E0      		ldi r18,lo8(0)
 2119 0770 30E0      		ldi r19,hi8(0)
 2120               	.LVL127:
 2121 0772 00C0      		rjmp .L229
 2122               	.LVL128:
 2123               	.L230:
 2124               	.LBB297:
 2125               	.LBB298:
 2126               	.LBB299:
 2127               	.LM333:
 2128 0774 F901      		movw r30,r18
 2129 0776 E050      		subi r30,lo8(-(UART))
 2130 0778 F040      		sbci r31,hi8(-(UART))
 2131 077a 8385      		ldd r24,Z+11
 2132               	.LBE299:
 2133               	.LBE298:
 2134               	.LM334:
 2135 077c FA01      		movw r30,r20
 2136 077e E20F      		add r30,r18
 2137 0780 F31F      		adc r31,r19
 2138 0782 8083      		st Z,r24
 2139               	.LM335:
 2140 0784 2F5F      		subi r18,lo8(-(1))
 2141 0786 3F4F      		sbci r19,hi8(-(1))
 2142               	.LVL129:
 2143               	.L229:
 2144               	.LBB300:
 2145               	.LBB301:
 2146               	.LBB302:
 2147               	.LBB303:
 2148               	.LM336:
 2149 0788 8091 0000 		lds r24,UART+77
 2150 078c 9091 0000 		lds r25,(UART+77)+1
 2151               	.LBE303:
 2152               	.LBE302:
 2153               	.LBE301:
 2154               	.LBE300:
 2155               	.LM337:
 2156 0790 90E0      		ldi r25,lo8(0)
 2157 0792 2817      		cp r18,r24
 2158 0794 3907      		cpc r19,r25
 2159 0796 00F0      		brlo .L230
 2160               	/* epilogue start */
 2161               	.LBE297:
 2162               	.LM338:
 2163 0798 0895      		ret
 2164               	.LFE69:
 2166               	.global	UART_Data_Print_Buf
 2168               	UART_Data_Print_Buf:
 2169               	.LFB70:
 2170               	.LM339:
 2171               	/* prologue: function */
 2172               	/* frame size = 0 */
 2173               	.LM340:
 2174 079a 20E0      		ldi r18,lo8(0)
 2175 079c 30E0      		ldi r19,hi8(0)
 2176               	.LVL130:
 2177 079e 00C0      		rjmp .L233
 2178               	.L235:
 2179               	.LBB304:
 2180               	.LBB305:
 2181               	.LBB306:
 2182               	.LM341:
 2183 07a0 F901      		movw r30,r18
 2184 07a2 E050      		subi r30,lo8(-(UART))
 2185 07a4 F040      		sbci r31,hi8(-(UART))
 2186 07a6 9385      		ldd r25,Z+11
 2187               	.L234:
 2188               	.LBE306:
 2189               	.LBE305:
 2190               	.LBB307:
 2191               	.LBB308:
 2192               	.LM342:
 2193 07a8 8091 C000 		lds r24,192
 2194 07ac 85FF      		sbrs r24,5
 2195 07ae 00C0      		rjmp .L234
 2196               	.LM343:
 2197 07b0 9093 C600 		sts 198,r25
 2198               	.LBE308:
 2199               	.LBE307:
 2200               	.LM344:
 2201 07b4 2F5F      		subi r18,lo8(-(1))
 2202 07b6 3F4F      		sbci r19,hi8(-(1))
 2203               	.L233:
 2204               	.LBB309:
 2205               	.LBB310:
 2206               	.LBB311:
 2207               	.LBB312:
 2208               	.LM345:
 2209 07b8 8091 0000 		lds r24,UART+77
 2210 07bc 9091 0000 		lds r25,(UART+77)+1
 2211               	.LBE312:
 2212               	.LBE311:
 2213               	.LBE310:
 2214               	.LBE309:
 2215               	.LM346:
 2216 07c0 90E0      		ldi r25,lo8(0)
 2217 07c2 2817      		cp r18,r24
 2218 07c4 3907      		cpc r19,r25
 2219 07c6 00F0      		brlo .L235
 2220               	.LBE304:
 2221               	.LM347:
 2222 07c8 0E94 0000 		call UART_Tx_NL
 2223               	.LVL131:
 2224               	/* epilogue start */
 2225               	.LM348:
 2226 07cc 0895      		ret
 2227               	.LFE70:
 2229               	.global	UART_Error_Code_Get
 2231               	UART_Error_Code_Get:
 2232               	.LFB71:
 2233               	.LM349:
 2234               	/* prologue: function */
 2235               	/* frame size = 0 */
 2236               	.LM350:
 2237 07ce 8091 0000 		lds r24,UART
 2238               	/* epilogue start */
 2239               	.LM351:
 2240 07d2 0895      		ret
 2241               	.LFE71:
 2243               	.global	UART_Error_Code_Clear
 2245               	UART_Error_Code_Clear:
 2246               	.LFB72:
 2247               	.LM352:
 2248               	/* prologue: function */
 2249               	/* frame size = 0 */
 2250               	.LM353:
 2251 07d4 1092 0000 		sts UART,__zero_reg__
 2252               	/* epilogue start */
 2253               	.LM354:
 2254 07d8 0895      		ret
 2255               	.LFE72:
 2257               	.global	UART_ISR_Handler
 2259               	UART_ISR_Handler:
 2260               	.LFB73:
 2261               	.LM355:
 2262               	/* prologue: function */
 2263               	/* frame size = 0 */
 2264               	.LM356:
 2265 07da 0E94 0000 		call UART_Rx_Byte
 2266 07de 8093 0000 		sts UART+10,r24
 2267               	.LM357:
 2268 07e2 8091 0000 		lds r24,UART
 2269 07e6 8823      		tst r24
 2270 07e8 01F4      		brne .L243
 2271               	.LM358:
 2272 07ea E091 0000 		lds r30,UART+77
 2273 07ee F091 0000 		lds r31,(UART+77)+1
 2274 07f2 8091 0000 		lds r24,UART+10
 2275 07f6 E050      		subi r30,lo8(-(UART))
 2276 07f8 F040      		sbci r31,hi8(-(UART))
 2277 07fa 8387      		std Z+11,r24
 2278               	.LM359:
 2279 07fc 8091 0000 		lds r24,UART+77
 2280 0800 9091 0000 		lds r25,(UART+77)+1
 2281 0804 0196      		adiw r24,1
 2282 0806 9093 0000 		sts (UART+77)+1,r25
 2283 080a 8093 0000 		sts UART+77,r24
 2284               	.LM360:
 2285 080e 2091 0000 		lds r18,UART+77
 2286 0812 3091 0000 		lds r19,(UART+77)+1
 2287 0816 8091 0000 		lds r24,UART+75
 2288 081a 9091 0000 		lds r25,(UART+75)+1
 2289 081e 2817      		cp r18,r24
 2290 0820 3907      		cpc r19,r25
 2291 0822 00F0      		brlo .L244
 2292               	.LM361:
 2293 0824 1092 0000 		sts (UART+77)+1,__zero_reg__
 2294 0828 1092 0000 		sts UART+77,__zero_reg__
 2295 082c 00C0      		rjmp .L244
 2296               	.L243:
 2297               	.LM362:
 2298 082e 1092 0000 		sts UART+10,__zero_reg__
 2299               	.L244:
 2300               	.LBB313:
 2301               	.LBB314:
 2302               	.LM363:
 2303 0832 8091 0000 		lds r24,UART+80
 2304 0836 8093 B200 		sts 178,r24
 2305               	.LBE314:
 2306               	.LBE313:
 2307               	.LM364:
 2308 083a 8091 0000 		lds r24,UART+79
 2309 083e 8823      		tst r24
 2310 0840 01F4      		brne .L246
 2311               	.LBB315:
 2312               	.LBB316:
 2313               	.LM365:
 2314 0842 87E0      		ldi r24,lo8(7)
 2315 0844 8093 B100 		sts 177,r24
 2316               	.LBE316:
 2317               	.LBE315:
 2318               	.LM366:
 2319 0848 81E0      		ldi r24,lo8(1)
 2320 084a 8093 0000 		sts UART+79,r24
 2321               	.L246:
 2322 084e 0895      		ret
 2323               	.LFE73:
 2325               	.global	__vector_18
 2327               	__vector_18:
 2328               	.LFB17:
 2329               	.LM367:
 2330 0850 1F92      		push __zero_reg__
 2331 0852 0F92      		push r0
 2332 0854 0FB6      		in r0,__SREG__
 2333 0856 0F92      		push r0
 2334 0858 1124      		clr __zero_reg__
 2335 085a 2F93      		push r18
 2336 085c 3F93      		push r19
 2337 085e 4F93      		push r20
 2338 0860 5F93      		push r21
 2339 0862 6F93      		push r22
 2340 0864 7F93      		push r23
 2341 0866 8F93      		push r24
 2342 0868 9F93      		push r25
 2343 086a AF93      		push r26
 2344 086c BF93      		push r27
 2345 086e EF93      		push r30
 2346 0870 FF93      		push r31
 2347               	/* prologue: Signal */
 2348               	/* frame size = 0 */
 2349               	.LM368:
 2350 0872 0E94 0000 		call UART_ISR_Handler
 2351               	/* epilogue start */
 2352               	.LM369:
 2353 0876 FF91      		pop r31
 2354 0878 EF91      		pop r30
 2355 087a BF91      		pop r27
 2356 087c AF91      		pop r26
 2357 087e 9F91      		pop r25
 2358 0880 8F91      		pop r24
 2359 0882 7F91      		pop r23
 2360 0884 6F91      		pop r22
 2361 0886 5F91      		pop r21
 2362 0888 4F91      		pop r20
 2363 088a 3F91      		pop r19
 2364 088c 2F91      		pop r18
 2365 088e 0F90      		pop r0
 2366 0890 0FBE      		out __SREG__,r0
 2367 0892 0F90      		pop r0
 2368 0894 1F90      		pop __zero_reg__
 2369 0896 1895      		reti
 2370               	.LFE17:
 2372               	.global	UART_CRC_Calculate_Byte
 2374               	UART_CRC_Calculate_Byte:
 2375               	.LFB75:
 2376               	.LM370:
 2377               	.LVL132:
 2378               	/* prologue: function */
 2379               	/* frame size = 0 */
 2380               	.LM371:
 2381 0898 362F      		mov r19,r22
 2382               	.LVL133:
 2383 089a 20E0      		ldi r18,lo8(0)
 2384               	.LVL134:
 2385 089c 2827      		eor r18,r24
 2386 089e 3927      		eor r19,r25
 2387               	.LVL135:
 2388 08a0 40E0      		ldi r20,lo8(0)
 2389               	.LVL136:
 2390               	.LBB317:
 2391               	.LM372:
 2392 08a2 61E2      		ldi r22,lo8(4129)
 2393 08a4 70E1      		ldi r23,hi8(4129)
 2394               	.LVL137:
 2395               	.L252:
 2396 08a6 C901      		movw r24,r18
 2397 08a8 880F      		lsl r24
 2398 08aa 991F      		rol r25
 2399               	.LVL138:
 2400               	.LM373:
 2401 08ac 37FF      		sbrs r19,7
 2402 08ae 00C0      		rjmp .L250
 2403               	.LVL139:
 2404               	.LM374:
 2405 08b0 9C01      		movw r18,r24
 2406 08b2 2627      		eor r18,r22
 2407 08b4 3727      		eor r19,r23
 2408 08b6 00C0      		rjmp .L251
 2409               	.LVL140:
 2410               	.L250:
 2411               	.LM375:
 2412 08b8 9C01      		movw r18,r24
 2413               	.L251:
 2414               	.LM376:
 2415 08ba 4F5F      		subi r20,lo8(-(1))
 2416 08bc 4830      		cpi r20,lo8(8)
 2417 08be 01F4      		brne .L252
 2418               	.LBE317:
 2419               	.LM377:
 2420 08c0 C901      		movw r24,r18
 2421               	.LVL141:
 2422               	/* epilogue start */
 2423 08c2 0895      		ret
 2424               	.LFE75:
 2426               	.global	UART_CRC_Calculate_Block
 2428               	UART_CRC_Calculate_Block:
 2429               	.LFB76:
 2430               	.LM378:
 2431               	.LVL142:
 2432 08c4 0F93      		push r16
 2433 08c6 1F93      		push r17
 2434 08c8 CF93      		push r28
 2435 08ca DF93      		push r29
 2436               	/* prologue: function */
 2437               	/* frame size = 0 */
 2438 08cc 062F      		mov r16,r22
 2439               	.LM379:
 2440 08ce EC01      		movw r28,r24
 2441               	.LVL143:
 2442 08d0 20E0      		ldi r18,lo8(0)
 2443 08d2 30E0      		ldi r19,hi8(0)
 2444               	.LVL144:
 2445 08d4 10E0      		ldi r17,lo8(0)
 2446               	.LVL145:
 2447 08d6 00C0      		rjmp .L256
 2448               	.LVL146:
 2449               	.L257:
 2450               	.LBB318:
 2451               	.LM380:
 2452 08d8 C901      		movw r24,r18
 2453 08da 6991      		ld r22,Y+
 2454 08dc 0E94 0000 		call UART_CRC_Calculate_Byte
 2455               	.LVL147:
 2456 08e0 9C01      		movw r18,r24
 2457               	.LVL148:
 2458               	.LM381:
 2459 08e2 1F5F      		subi r17,lo8(-(1))
 2460               	.LVL149:
 2461               	.L256:
 2462 08e4 1017      		cp r17,r16
 2463 08e6 00F0      		brlo .L257
 2464               	.LBE318:
 2465               	.LM382:
 2466 08e8 C901      		movw r24,r18
 2467               	.LVL150:
 2468               	/* epilogue start */
 2469 08ea DF91      		pop r29
 2470 08ec CF91      		pop r28
 2471 08ee 1F91      		pop r17
 2472               	.LVL151:
 2473 08f0 0F91      		pop r16
 2474               	.LVL152:
 2475 08f2 0895      		ret
 2476               	.LFE76:
 2478               	.global	UART_RX_Packet_CRC_Check
 2480               	UART_RX_Packet_CRC_Check:
 2481               	.LFB77:
 2482               	.LM383:
 2483               	/* prologue: function */
 2484               	/* frame size = 0 */
 2485               	.LBB319:
 2486               	.LBB320:
 2487               	.LBB321:
 2488               	.LBB322:
 2489               	.LM384:
 2490 08f4 8091 0000 		lds r24,UART+77
 2491 08f8 9091 0000 		lds r25,(UART+77)+1
 2492               	.LBE322:
 2493               	.LBE321:
 2494               	.LBE320:
 2495               	.LBE319:
 2496               	.LM385:
 2497 08fc 8230      		cpi r24,lo8(2)
 2498 08fe 00F4      		brsh .L260
 2499 0900 40E0      		ldi r20,lo8(0)
 2500 0902 50E0      		ldi r21,hi8(0)
 2501               	.LVL153:
 2502 0904 20E0      		ldi r18,lo8(0)
 2503 0906 30E0      		ldi r19,hi8(0)
 2504               	.LVL154:
 2505 0908 00C0      		rjmp .L261
 2506               	.LVL155:
 2507               	.L260:
 2508               	.LBB323:
 2509               	.LBB324:
 2510               	.LBB325:
 2511               	.LBB326:
 2512               	.LM386:
 2513 090a 6091 0000 		lds r22,UART+77
 2514 090e 7091 0000 		lds r23,(UART+77)+1
 2515               	.LBE326:
 2516               	.LBE325:
 2517               	.LBE324:
 2518               	.LBE323:
 2519               	.LM387:
 2520 0912 6250      		subi r22,lo8(-(-2))
 2521 0914 80E0      		ldi r24,lo8(UART+11)
 2522 0916 90E0      		ldi r25,hi8(UART+11)
 2523 0918 0E94 0000 		call UART_CRC_Calculate_Block
 2524 091c AC01      		movw r20,r24
 2525               	.LVL156:
 2526               	.LBB327:
 2527               	.LBB328:
 2528               	.LBB329:
 2529               	.LBB330:
 2530               	.LM388:
 2531 091e E091 0000 		lds r30,UART+77
 2532 0922 F091 0000 		lds r31,(UART+77)+1
 2533               	.LBE330:
 2534               	.LBE329:
 2535               	.LBE328:
 2536               	.LBE327:
 2537               	.LM389:
 2538 0926 F0E0      		ldi r31,lo8(0)
 2539               	.LBB331:
 2540               	.LBB332:
 2541               	.LM390:
 2542 0928 E050      		subi r30,lo8(-(UART-2))
 2543 092a F040      		sbci r31,hi8(-(UART-2))
 2544 092c 2385      		ldd r18,Z+11
 2545               	.LBE332:
 2546               	.LBE331:
 2547               	.LM391:
 2548 092e 922F      		mov r25,r18
 2549               	.LVL157:
 2550 0930 80E0      		ldi r24,lo8(0)
 2551               	.LVL158:
 2552               	.LBB333:
 2553               	.LBB334:
 2554               	.LBB335:
 2555               	.LBB336:
 2556               	.LM392:
 2557 0932 E091 0000 		lds r30,UART+77
 2558 0936 F091 0000 		lds r31,(UART+77)+1
 2559               	.LBE336:
 2560               	.LBE335:
 2561               	.LBE334:
 2562               	.LBE333:
 2563               	.LM393:
 2564 093a F0E0      		ldi r31,lo8(0)
 2565               	.LBB337:
 2566               	.LBB338:
 2567               	.LM394:
 2568 093c E050      		subi r30,lo8(-(UART-1))
 2569 093e F040      		sbci r31,hi8(-(UART-1))
 2570 0940 2385      		ldd r18,Z+11
 2571               	.LBE338:
 2572               	.LBE337:
 2573               	.LM395:
 2574 0942 30E0      		ldi r19,lo8(0)
 2575               	.LVL159:
 2576 0944 282B      		or r18,r24
 2577 0946 392B      		or r19,r25
 2578               	.LVL160:
 2579               	.L261:
 2580               	.LM396:
 2581 0948 5093 0000 		sts (UART+81)+1,r21
 2582 094c 4093 0000 		sts UART+81,r20
 2583               	.LM397:
 2584 0950 3093 0000 		sts (UART+83)+1,r19
 2585 0954 2093 0000 		sts UART+83,r18
 2586               	.LM398:
 2587 0958 2091 0000 		lds r18,UART+81
 2588 095c 3091 0000 		lds r19,(UART+81)+1
 2589               	.LVL161:
 2590 0960 8091 0000 		lds r24,UART+83
 2591 0964 9091 0000 		lds r25,(UART+83)+1
 2592 0968 2817      		cp r18,r24
 2593 096a 3907      		cpc r19,r25
 2594 096c 01F4      		brne .L262
 2595               	.LM399:
 2596 096e 81E0      		ldi r24,lo8(1)
 2597 0970 8093 0000 		sts UART+85,r24
 2598 0974 0895      		ret
 2599               	.L262:
 2600               	.LM400:
 2601 0976 1092 0000 		sts UART+85,__zero_reg__
 2602 097a 0895      		ret
 2603               	.LFE77:
 2605               	.global	UART_Timer_ISR_Handler
 2607               	UART_Timer_ISR_Handler:
 2608               	.LFB74:
 2609               	.LM401:
 2610               	/* prologue: function */
 2611               	/* frame size = 0 */
 2612               	.LM402:
 2613 097c 8091 0000 		lds r24,UART+79
 2614 0980 8130      		cpi r24,lo8(1)
 2615 0982 01F4      		brne .L266
 2616               	.LBB339:
 2617               	.LBB340:
 2618               	.LM403:
 2619 0984 1092 B100 		sts 177,__zero_reg__
 2620               	.LBE340:
 2621               	.LBE339:
 2622               	.LM404:
 2623 0988 1092 0000 		sts UART+79,__zero_reg__
 2624               	.L266:
 2625               	.LBB341:
 2626               	.LBB342:
 2627               	.LM405:
 2628 098c 8091 0000 		lds r24,UART+77
 2629 0990 9091 0000 		lds r25,(UART+77)+1
 2630               	.LBE342:
 2631               	.LBE341:
 2632               	.LM406:
 2633 0994 8823      		tst r24
 2634 0996 01F0      		breq .L269
 2635               	.LM407:
 2636 0998 8091 0000 		lds r24,UART+87
 2637 099c 8823      		tst r24
 2638 099e 01F4      		brne .L268
 2639               	.LM408:
 2640 09a0 80E1      		ldi r24,lo8(16)
 2641 09a2 8093 0000 		sts UART,r24
 2642               	.L268:
 2643               	.LM409:
 2644 09a6 0E94 0000 		call UART_RX_Packet_CRC_Check
 2645               	.LM410:
 2646 09aa 81E0      		ldi r24,lo8(1)
 2647 09ac 8093 0000 		sts UART+86,r24
 2648               	.LM411:
 2649 09b0 1092 0000 		sts UART+87,__zero_reg__
 2650               	.L269:
 2651 09b4 0895      		ret
 2652               	.LFE74:
 2654               	.global	__vector_9
 2656               	__vector_9:
 2657               	.LFB26:
 2658               	.LM412:
 2659 09b6 1F92      		push __zero_reg__
 2660 09b8 0F92      		push r0
 2661 09ba 0FB6      		in r0,__SREG__
 2662 09bc 0F92      		push r0
 2663 09be 1124      		clr __zero_reg__
 2664 09c0 2F93      		push r18
 2665 09c2 3F93      		push r19
 2666 09c4 4F93      		push r20
 2667 09c6 5F93      		push r21
 2668 09c8 6F93      		push r22
 2669 09ca 7F93      		push r23
 2670 09cc 8F93      		push r24
 2671 09ce 9F93      		push r25
 2672 09d0 AF93      		push r26
 2673 09d2 BF93      		push r27
 2674 09d4 EF93      		push r30
 2675 09d6 FF93      		push r31
 2676               	/* prologue: Signal */
 2677               	/* frame size = 0 */
 2678               	.LM413:
 2679 09d8 0E94 0000 		call UART_Timer_ISR_Handler
 2680               	/* epilogue start */
 2681               	.LM414:
 2682 09dc FF91      		pop r31
 2683 09de EF91      		pop r30
 2684 09e0 BF91      		pop r27
 2685 09e2 AF91      		pop r26
 2686 09e4 9F91      		pop r25
 2687 09e6 8F91      		pop r24
 2688 09e8 7F91      		pop r23
 2689 09ea 6F91      		pop r22
 2690 09ec 5F91      		pop r21
 2691 09ee 4F91      		pop r20
 2692 09f0 3F91      		pop r19
 2693 09f2 2F91      		pop r18
 2694 09f4 0F90      		pop r0
 2695 09f6 0FBE      		out __SREG__,r0
 2696 09f8 0F90      		pop r0
 2697 09fa 1F90      		pop __zero_reg__
 2698 09fc 1895      		reti
 2699               	.LFE26:
 2701               	.global	UART_RX_Packet_Read_Complete
 2703               	UART_RX_Packet_Read_Complete:
 2704               	.LFB78:
 2705               	.LM415:
 2706               	/* prologue: function */
 2707               	/* frame size = 0 */
 2708               	.LM416:
 2709 09fe 80E0      		ldi r24,lo8(0)
 2710 0a00 90E0      		ldi r25,hi8(0)
 2711               	.L273:
 2712               	.LBB343:
 2713               	.LBB344:
 2714               	.LBB345:
 2715               	.LM417:
 2716 0a02 FC01      		movw r30,r24
 2717 0a04 E050      		subi r30,lo8(-(UART))
 2718 0a06 F040      		sbci r31,hi8(-(UART))
 2719 0a08 1386      		std Z+11,__zero_reg__
 2720 0a0a 0196      		adiw r24,1
 2721               	.LM418:
 2722 0a0c 8034      		cpi r24,64
 2723 0a0e 9105      		cpc r25,__zero_reg__
 2724 0a10 01F4      		brne .L273
 2725               	.LBE345:
 2726               	.LM419:
 2727 0a12 1092 0000 		sts (UART+77)+1,__zero_reg__
 2728 0a16 1092 0000 		sts UART+77,__zero_reg__
 2729               	.LBE344:
 2730               	.LBE343:
 2731               	.LBB346:
 2732               	.LBB347:
 2733               	.LM420:
 2734 0a1a 1092 0000 		sts UART+86,__zero_reg__
 2735               	.LBE347:
 2736               	.LBE346:
 2737               	.LM421:
 2738 0a1e 0E94 0000 		call UART_Data_Clear_Read_Complete_Flag
 2739               	/* epilogue start */
 2740               	.LM422:
 2741 0a22 0895      		ret
 2742               	.LFE78:
 2744               	.global	UART_Init
 2746               	UART_Init:
 2747               	.LFB79:
 2748               	.LM423:
 2749               	.LVL162:
 2750 0a24 EF92      		push r14
 2751 0a26 FF92      		push r15
 2752 0a28 0F93      		push r16
 2753 0a2a 1F93      		push r17
 2754               	/* prologue: function */
 2755               	/* frame size = 0 */
 2756 0a2c 7B01      		movw r14,r22
 2757 0a2e 8C01      		movw r16,r24
 2758               	.LM424:
 2759 0a30 0E94 0000 		call UART_Struct_Init
 2760               	.LVL163:
 2761               	.LBB348:
 2762               	.LBB349:
 2763               	.LM425:
 2764 0a34 1092 0000 		sts (UART+81)+1,__zero_reg__
 2765 0a38 1092 0000 		sts UART+81,__zero_reg__
 2766               	.LM426:
 2767 0a3c 1092 0000 		sts (UART+83)+1,__zero_reg__
 2768 0a40 1092 0000 		sts UART+83,__zero_reg__
 2769               	.LM427:
 2770 0a44 1092 0000 		sts UART+85,__zero_reg__
 2771               	.LM428:
 2772 0a48 1092 0000 		sts UART+86,__zero_reg__
 2773               	.LM429:
 2774 0a4c 81E0      		ldi r24,lo8(1)
 2775 0a4e 8093 0000 		sts UART+87,r24
 2776               	.LBE349:
 2777               	.LBE348:
 2778               	.LBB350:
 2779               	.LBB351:
 2780               	.LM430:
 2781 0a52 1092 0000 		sts UART+79,__zero_reg__
 2782               	.LM431:
 2783 0a56 1092 0000 		sts UART+80,__zero_reg__
 2784               	.LBE351:
 2785               	.LBE350:
 2786               	.LM432:
 2787 0a5a C801      		movw r24,r16
 2788 0a5c B701      		movw r22,r14
 2789 0a5e 0E94 0000 		call UART_Config_BAUD_Rate
 2790               	.LBB352:
 2791               	.LBB353:
 2792               	.LM433:
 2793 0a62 8091 C100 		lds r24,193
 2794 0a66 8860      		ori r24,lo8(8)
 2795 0a68 8093 C100 		sts 193,r24
 2796               	.LM434:
 2797 0a6c 96E0      		ldi r25,lo8(6)
 2798 0a6e 9093 C200 		sts 194,r25
 2799               	.LBE353:
 2800               	.LBE352:
 2801               	.LBB354:
 2802               	.LBB355:
 2803               	.LM435:
 2804 0a72 8091 C100 		lds r24,193
 2805 0a76 8061      		ori r24,lo8(16)
 2806 0a78 8093 C100 		sts 193,r24
 2807               	.LM436:
 2808 0a7c 9093 C200 		sts 194,r25
 2809               	.LBE355:
 2810               	.LBE354:
 2811               	.LBB356:
 2812               	.LBB357:
 2813               	.LM437:
 2814 0a80 8091 C100 		lds r24,193
 2815 0a84 8068      		ori r24,lo8(-128)
 2816 0a86 8093 C100 		sts 193,r24
 2817               	.LM438:
 2818               	/* #APP */
 2819               	 ;  155 "uart.c" 1
 2820 0a8a 7894      		sei
 2821               	 ;  0 "" 2
 2822               	/* #NOAPP */
 2823               	.LBE357:
 2824               	.LBE356:
 2825               	.LM439:
 2826 0a8c 0E94 0000 		call UART_Timer_Init
 2827 0a90 80E0      		ldi r24,lo8(0)
 2828 0a92 90E0      		ldi r25,hi8(0)
 2829               	.L277:
 2830               	.LBB358:
 2831               	.LBB359:
 2832               	.LBB360:
 2833               	.LM440:
 2834 0a94 FC01      		movw r30,r24
 2835 0a96 E050      		subi r30,lo8(-(UART))
 2836 0a98 F040      		sbci r31,hi8(-(UART))
 2837 0a9a 1386      		std Z+11,__zero_reg__
 2838 0a9c 0196      		adiw r24,1
 2839               	.LM441:
 2840 0a9e 8034      		cpi r24,64
 2841 0aa0 9105      		cpc r25,__zero_reg__
 2842 0aa2 01F4      		brne .L277
 2843               	.LBE360:
 2844               	.LM442:
 2845 0aa4 1092 0000 		sts (UART+77)+1,__zero_reg__
 2846 0aa8 1092 0000 		sts UART+77,__zero_reg__
 2847               	/* epilogue start */
 2848               	.LBE359:
 2849               	.LBE358:
 2850               	.LM443:
 2851 0aac 1F91      		pop r17
 2852 0aae 0F91      		pop r16
 2853 0ab0 FF90      		pop r15
 2854 0ab2 EF90      		pop r14
 2855               	.LVL164:
 2856 0ab4 0895      		ret
 2857               	.LFE79:
 2859               		.lcomm UART,88
 3468               	.Letext0:
DEFINED SYMBOLS
                            *ABS*:00000000 uart.c
C:\Users\WALTON\AppData\Local\Temp/ccXoHtKS.s:2      *ABS*:0000003f __SREG__
C:\Users\WALTON\AppData\Local\Temp/ccXoHtKS.s:3      *ABS*:0000003e __SP_H__
C:\Users\WALTON\AppData\Local\Temp/ccXoHtKS.s:4      *ABS*:0000003d __SP_L__
C:\Users\WALTON\AppData\Local\Temp/ccXoHtKS.s:5      *ABS*:00000034 __CCP__
C:\Users\WALTON\AppData\Local\Temp/ccXoHtKS.s:6      *ABS*:00000000 __tmp_reg__
C:\Users\WALTON\AppData\Local\Temp/ccXoHtKS.s:7      *ABS*:00000001 __zero_reg__
C:\Users\WALTON\AppData\Local\Temp/ccXoHtKS.s:18     .text:00000000 UART_Struct_Init
                             .bss:00000000 UART
C:\Users\WALTON\AppData\Local\Temp/ccXoHtKS.s:80     .text:0000004a UART_RX_Packet_Struct_Init
C:\Users\WALTON\AppData\Local\Temp/ccXoHtKS.s:105    .text:0000006a UART_Config_GPIO
C:\Users\WALTON\AppData\Local\Temp/ccXoHtKS.s:117    .text:0000006c UART_Config_Clock
C:\Users\WALTON\AppData\Local\Temp/ccXoHtKS.s:129    .text:0000006e UART_Config_BAUD_Rate
C:\Users\WALTON\AppData\Local\Temp/ccXoHtKS.s:171    .text:000000a2 UART_Config_Tx
C:\Users\WALTON\AppData\Local\Temp/ccXoHtKS.s:192    .text:000000b4 UART_Config_Rx
C:\Users\WALTON\AppData\Local\Temp/ccXoHtKS.s:213    .text:000000c6 UART_Config_Rx_Interrupt
C:\Users\WALTON\AppData\Local\Temp/ccXoHtKS.s:237    .text:000000d4 UART_Clear_Interrupt_Flag
C:\Users\WALTON\AppData\Local\Temp/ccXoHtKS.s:249    .text:000000d6 UART_Tx_Byte
C:\Users\WALTON\AppData\Local\Temp/ccXoHtKS.s:271    .text:000000e6 UART_Rx_Byte
C:\Users\WALTON\AppData\Local\Temp/ccXoHtKS.s:332    .text:0000012e UART_Timer_Struct_Init
C:\Users\WALTON\AppData\Local\Temp/ccXoHtKS.s:348    .text:00000138 UART_Timer_Init
C:\Users\WALTON\AppData\Local\Temp/ccXoHtKS.s:390    .text:00000166 UART_Timer_Enable
C:\Users\WALTON\AppData\Local\Temp/ccXoHtKS.s:405    .text:0000016e UART_Timer_Disable
C:\Users\WALTON\AppData\Local\Temp/ccXoHtKS.s:419    .text:00000174 UART_Timer_Get_Status
C:\Users\WALTON\AppData\Local\Temp/ccXoHtKS.s:433    .text:0000017a UART_Timer_Get_Val
C:\Users\WALTON\AppData\Local\Temp/ccXoHtKS.s:448    .text:00000182 UART_Timer_Value_Reset
C:\Users\WALTON\AppData\Local\Temp/ccXoHtKS.s:463    .text:0000018c UART_Timer_Clear_Interrupt_Flag
C:\Users\WALTON\AppData\Local\Temp/ccXoHtKS.s:475    .text:0000018e UART_Tx_Buf
C:\Users\WALTON\AppData\Local\Temp/ccXoHtKS.s:525    .text:000001b8 UART_Tx_NL
C:\Users\WALTON\AppData\Local\Temp/ccXoHtKS.s:561    .text:000001d6 UART_Tx_SP
C:\Users\WALTON\AppData\Local\Temp/ccXoHtKS.s:585    .text:000001e6 UART_Tx_CM
C:\Users\WALTON\AppData\Local\Temp/ccXoHtKS.s:609    .text:000001f6 UART_Tx_Text
C:\Users\WALTON\AppData\Local\Temp/ccXoHtKS.s:650    .text:00000218 UART_Tx_Text_NL
C:\Users\WALTON\AppData\Local\Temp/ccXoHtKS.s:668    .text:00000222 UART_Tx_Text_SP
C:\Users\WALTON\AppData\Local\Temp/ccXoHtKS.s:700    .text:00000236 UART_Tx_Text_CM
C:\Users\WALTON\AppData\Local\Temp/ccXoHtKS.s:732    .text:0000024a UART_Determine_Digit_Numbers
C:\Users\WALTON\AppData\Local\Temp/ccXoHtKS.s:822    .text:000002c8 UART_Tx_Number_Digits
C:\Users\WALTON\AppData\Local\Temp/ccXoHtKS.s:878    .text:000002f2 UART_Tx_Number
C:\Users\WALTON\AppData\Local\Temp/ccXoHtKS.s:925    .text:00000324 UART_Tx_Number_Hex
C:\Users\WALTON\AppData\Local\Temp/ccXoHtKS.s:1076   .text:000003d6 UART_Tx_Number_Bin
C:\Users\WALTON\AppData\Local\Temp/ccXoHtKS.s:1231   .text:00000496 UART_Tx_Number_NL
C:\Users\WALTON\AppData\Local\Temp/ccXoHtKS.s:1249   .text:000004a0 UART_Tx_Number_SP
C:\Users\WALTON\AppData\Local\Temp/ccXoHtKS.s:1281   .text:000004b4 UART_Tx_Number_CM
C:\Users\WALTON\AppData\Local\Temp/ccXoHtKS.s:1313   .text:000004c8 UART_Tx_Number_Hex_NL
C:\Users\WALTON\AppData\Local\Temp/ccXoHtKS.s:1331   .text:000004d2 UART_Tx_Number_Hex_SP
C:\Users\WALTON\AppData\Local\Temp/ccXoHtKS.s:1363   .text:000004e6 UART_Tx_Number_Hex_CM
C:\Users\WALTON\AppData\Local\Temp/ccXoHtKS.s:1395   .text:000004fa UART_Tx_Number_Bin_NL
C:\Users\WALTON\AppData\Local\Temp/ccXoHtKS.s:1413   .text:00000504 UART_Tx_Number_Bin_SP
C:\Users\WALTON\AppData\Local\Temp/ccXoHtKS.s:1445   .text:00000518 UART_Tx_Number_Bin_CM
C:\Users\WALTON\AppData\Local\Temp/ccXoHtKS.s:1477   .text:0000052c UART_Tx_Parameter_NL
C:\Users\WALTON\AppData\Local\Temp/ccXoHtKS.s:1524   .text:0000055c UART_Tx_Parameter_SP
C:\Users\WALTON\AppData\Local\Temp/ccXoHtKS.s:1571   .text:0000058c UART_Tx_Parameter_CM
C:\Users\WALTON\AppData\Local\Temp/ccXoHtKS.s:1618   .text:000005bc UART_Tx_Parameter_Hex_NL
C:\Users\WALTON\AppData\Local\Temp/ccXoHtKS.s:1665   .text:000005ec UART_Tx_Parameter_Hex_SP
C:\Users\WALTON\AppData\Local\Temp/ccXoHtKS.s:1712   .text:0000061c UART_Tx_Parameter_Hex_CM
C:\Users\WALTON\AppData\Local\Temp/ccXoHtKS.s:1759   .text:0000064c UART_Tx_Parameter_Bin_NL
C:\Users\WALTON\AppData\Local\Temp/ccXoHtKS.s:1806   .text:0000067c UART_Tx_Parameter_Bin_SP
C:\Users\WALTON\AppData\Local\Temp/ccXoHtKS.s:1853   .text:000006ac UART_Tx_Parameter_Bin_CM
C:\Users\WALTON\AppData\Local\Temp/ccXoHtKS.s:1900   .text:000006dc UART_Buf_Flush
C:\Users\WALTON\AppData\Local\Temp/ccXoHtKS.s:1931   .text:000006fa UART_Buf_Get
C:\Users\WALTON\AppData\Local\Temp/ccXoHtKS.s:1950   .text:00000704 UART_Buf_Get_Index
C:\Users\WALTON\AppData\Local\Temp/ccXoHtKS.s:1965   .text:0000070e UART_Data_Available
C:\Users\WALTON\AppData\Local\Temp/ccXoHtKS.s:1979   .text:00000714 UART_Data_Len_Get
C:\Users\WALTON\AppData\Local\Temp/ccXoHtKS.s:1998   .text:0000071e UART_Data_Calculated_CRC_Get
C:\Users\WALTON\AppData\Local\Temp/ccXoHtKS.s:2014   .text:0000072a UART_Data_Received_CRC_Get
C:\Users\WALTON\AppData\Local\Temp/ccXoHtKS.s:2030   .text:00000736 UART_Data_CRC_Status_Get
C:\Users\WALTON\AppData\Local\Temp/ccXoHtKS.s:2044   .text:0000073c UART_Data_Read_Complete_Status
C:\Users\WALTON\AppData\Local\Temp/ccXoHtKS.s:2058   .text:00000742 UART_Data_Clear_Available_Flag
C:\Users\WALTON\AppData\Local\Temp/ccXoHtKS.s:2072   .text:00000748 UART_Data_Clear_Read_Complete_Flag
C:\Users\WALTON\AppData\Local\Temp/ccXoHtKS.s:2110   .text:0000076c UART_Data_Copy_Buf
C:\Users\WALTON\AppData\Local\Temp/ccXoHtKS.s:2168   .text:0000079a UART_Data_Print_Buf
C:\Users\WALTON\AppData\Local\Temp/ccXoHtKS.s:2231   .text:000007ce UART_Error_Code_Get
C:\Users\WALTON\AppData\Local\Temp/ccXoHtKS.s:2245   .text:000007d4 UART_Error_Code_Clear
C:\Users\WALTON\AppData\Local\Temp/ccXoHtKS.s:2259   .text:000007da UART_ISR_Handler
C:\Users\WALTON\AppData\Local\Temp/ccXoHtKS.s:2327   .text:00000850 __vector_18
C:\Users\WALTON\AppData\Local\Temp/ccXoHtKS.s:2374   .text:00000898 UART_CRC_Calculate_Byte
C:\Users\WALTON\AppData\Local\Temp/ccXoHtKS.s:2428   .text:000008c4 UART_CRC_Calculate_Block
C:\Users\WALTON\AppData\Local\Temp/ccXoHtKS.s:2480   .text:000008f4 UART_RX_Packet_CRC_Check
C:\Users\WALTON\AppData\Local\Temp/ccXoHtKS.s:2607   .text:0000097c UART_Timer_ISR_Handler
C:\Users\WALTON\AppData\Local\Temp/ccXoHtKS.s:2656   .text:000009b6 __vector_9
C:\Users\WALTON\AppData\Local\Temp/ccXoHtKS.s:2703   .text:000009fe UART_RX_Packet_Read_Complete
C:\Users\WALTON\AppData\Local\Temp/ccXoHtKS.s:2746   .text:00000a24 UART_Init

UNDEFINED SYMBOLS
__udivmodsi4
__do_clear_bss
